
bufbomb:     file format elf64-x86-64


Disassembly of section bstack:

0000000055586000 <_reserved>:
	...

Disassembly of section .init:

0000000000400d18 <_init>:
  400d18:	48 83 ec 08          	sub    $0x8,%rsp
  400d1c:	48 8b 05 d5 32 20 00 	mov    0x2032d5(%rip),%rax        # 603ff8 <__gmon_start__>
  400d23:	48 85 c0             	test   %rax,%rax
  400d26:	74 05                	je     400d2d <_init+0x15>
  400d28:	e8 83 02 00 00       	callq  400fb0 <__gmon_start__@plt>
  400d2d:	48 83 c4 08          	add    $0x8,%rsp
  400d31:	c3                   	retq   

Disassembly of section .plt:

0000000000400d40 <.plt>:
  400d40:	ff 35 c2 32 20 00    	pushq  0x2032c2(%rip)        # 604008 <_GLOBAL_OFFSET_TABLE_+0x8>
  400d46:	ff 25 c4 32 20 00    	jmpq   *0x2032c4(%rip)        # 604010 <_GLOBAL_OFFSET_TABLE_+0x10>
  400d4c:	0f 1f 40 00          	nopl   0x0(%rax)

0000000000400d50 <strcasecmp@plt>:
  400d50:	ff 25 c2 32 20 00    	jmpq   *0x2032c2(%rip)        # 604018 <strcasecmp@GLIBC_2.2.5>
  400d56:	68 00 00 00 00       	pushq  $0x0
  400d5b:	e9 e0 ff ff ff       	jmpq   400d40 <.plt>

0000000000400d60 <__errno_location@plt>:
  400d60:	ff 25 ba 32 20 00    	jmpq   *0x2032ba(%rip)        # 604020 <__errno_location@GLIBC_2.2.5>
  400d66:	68 01 00 00 00       	pushq  $0x1
  400d6b:	e9 d0 ff ff ff       	jmpq   400d40 <.plt>

0000000000400d70 <srandom@plt>:
  400d70:	ff 25 b2 32 20 00    	jmpq   *0x2032b2(%rip)        # 604028 <srandom@GLIBC_2.2.5>
  400d76:	68 02 00 00 00       	pushq  $0x2
  400d7b:	e9 c0 ff ff ff       	jmpq   400d40 <.plt>

0000000000400d80 <strcpy@plt>:
  400d80:	ff 25 aa 32 20 00    	jmpq   *0x2032aa(%rip)        # 604030 <strcpy@GLIBC_2.2.5>
  400d86:	68 03 00 00 00       	pushq  $0x3
  400d8b:	e9 b0 ff ff ff       	jmpq   400d40 <.plt>

0000000000400d90 <puts@plt>:
  400d90:	ff 25 a2 32 20 00    	jmpq   *0x2032a2(%rip)        # 604038 <puts@GLIBC_2.2.5>
  400d96:	68 04 00 00 00       	pushq  $0x4
  400d9b:	e9 a0 ff ff ff       	jmpq   400d40 <.plt>

0000000000400da0 <write@plt>:
  400da0:	ff 25 9a 32 20 00    	jmpq   *0x20329a(%rip)        # 604040 <write@GLIBC_2.2.5>
  400da6:	68 05 00 00 00       	pushq  $0x5
  400dab:	e9 90 ff ff ff       	jmpq   400d40 <.plt>

0000000000400db0 <getpid@plt>:
  400db0:	ff 25 92 32 20 00    	jmpq   *0x203292(%rip)        # 604048 <getpid@GLIBC_2.2.5>
  400db6:	68 06 00 00 00       	pushq  $0x6
  400dbb:	e9 80 ff ff ff       	jmpq   400d40 <.plt>

0000000000400dc0 <strlen@plt>:
  400dc0:	ff 25 8a 32 20 00    	jmpq   *0x20328a(%rip)        # 604050 <strlen@GLIBC_2.2.5>
  400dc6:	68 07 00 00 00       	pushq  $0x7
  400dcb:	e9 70 ff ff ff       	jmpq   400d40 <.plt>

0000000000400dd0 <__stack_chk_fail@plt>:
  400dd0:	ff 25 82 32 20 00    	jmpq   *0x203282(%rip)        # 604058 <__stack_chk_fail@GLIBC_2.4>
  400dd6:	68 08 00 00 00       	pushq  $0x8
  400ddb:	e9 60 ff ff ff       	jmpq   400d40 <.plt>

0000000000400de0 <mmap@plt>:
  400de0:	ff 25 7a 32 20 00    	jmpq   *0x20327a(%rip)        # 604060 <mmap@GLIBC_2.2.5>
  400de6:	68 09 00 00 00       	pushq  $0x9
  400deb:	e9 50 ff ff ff       	jmpq   400d40 <.plt>

0000000000400df0 <htons@plt>:
  400df0:	ff 25 72 32 20 00    	jmpq   *0x203272(%rip)        # 604068 <htons@GLIBC_2.2.5>
  400df6:	68 0a 00 00 00       	pushq  $0xa
  400dfb:	e9 40 ff ff ff       	jmpq   400d40 <.plt>

0000000000400e00 <printf@plt>:
  400e00:	ff 25 6a 32 20 00    	jmpq   *0x20326a(%rip)        # 604070 <printf@GLIBC_2.2.5>
  400e06:	68 0b 00 00 00       	pushq  $0xb
  400e0b:	e9 30 ff ff ff       	jmpq   400d40 <.plt>

0000000000400e10 <memset@plt>:
  400e10:	ff 25 62 32 20 00    	jmpq   *0x203262(%rip)        # 604078 <memset@GLIBC_2.2.5>
  400e16:	68 0c 00 00 00       	pushq  $0xc
  400e1b:	e9 20 ff ff ff       	jmpq   400d40 <.plt>

0000000000400e20 <alarm@plt>:
  400e20:	ff 25 5a 32 20 00    	jmpq   *0x20325a(%rip)        # 604080 <alarm@GLIBC_2.2.5>
  400e26:	68 0d 00 00 00       	pushq  $0xd
  400e2b:	e9 10 ff ff ff       	jmpq   400d40 <.plt>

0000000000400e30 <close@plt>:
  400e30:	ff 25 52 32 20 00    	jmpq   *0x203252(%rip)        # 604088 <close@GLIBC_2.2.5>
  400e36:	68 0e 00 00 00       	pushq  $0xe
  400e3b:	e9 00 ff ff ff       	jmpq   400d40 <.plt>

0000000000400e40 <read@plt>:
  400e40:	ff 25 4a 32 20 00    	jmpq   *0x20324a(%rip)        # 604090 <read@GLIBC_2.2.5>
  400e46:	68 0f 00 00 00       	pushq  $0xf
  400e4b:	e9 f0 fe ff ff       	jmpq   400d40 <.plt>

0000000000400e50 <__libc_start_main@plt>:
  400e50:	ff 25 42 32 20 00    	jmpq   *0x203242(%rip)        # 604098 <__libc_start_main@GLIBC_2.2.5>
  400e56:	68 10 00 00 00       	pushq  $0x10
  400e5b:	e9 e0 fe ff ff       	jmpq   400d40 <.plt>

0000000000400e60 <srand@plt>:
  400e60:	ff 25 3a 32 20 00    	jmpq   *0x20323a(%rip)        # 6040a0 <srand@GLIBC_2.2.5>
  400e66:	68 11 00 00 00       	pushq  $0x11
  400e6b:	e9 d0 fe ff ff       	jmpq   400d40 <.plt>

0000000000400e70 <calloc@plt>:
  400e70:	ff 25 32 32 20 00    	jmpq   *0x203232(%rip)        # 6040a8 <calloc@GLIBC_2.2.5>
  400e76:	68 12 00 00 00       	pushq  $0x12
  400e7b:	e9 c0 fe ff ff       	jmpq   400d40 <.plt>

0000000000400e80 <strcmp@plt>:
  400e80:	ff 25 2a 32 20 00    	jmpq   *0x20322a(%rip)        # 6040b0 <strcmp@GLIBC_2.2.5>
  400e86:	68 13 00 00 00       	pushq  $0x13
  400e8b:	e9 b0 fe ff ff       	jmpq   400d40 <.plt>

0000000000400e90 <signal@plt>:
  400e90:	ff 25 22 32 20 00    	jmpq   *0x203222(%rip)        # 6040b8 <signal@GLIBC_2.2.5>
  400e96:	68 14 00 00 00       	pushq  $0x14
  400e9b:	e9 a0 fe ff ff       	jmpq   400d40 <.plt>

0000000000400ea0 <gethostbyname@plt>:
  400ea0:	ff 25 1a 32 20 00    	jmpq   *0x20321a(%rip)        # 6040c0 <gethostbyname@GLIBC_2.2.5>
  400ea6:	68 15 00 00 00       	pushq  $0x15
  400eab:	e9 90 fe ff ff       	jmpq   400d40 <.plt>

0000000000400eb0 <memcpy@plt>:
  400eb0:	ff 25 12 32 20 00    	jmpq   *0x203212(%rip)        # 6040c8 <memcpy@GLIBC_2.14>
  400eb6:	68 16 00 00 00       	pushq  $0x16
  400ebb:	e9 80 fe ff ff       	jmpq   400d40 <.plt>

0000000000400ec0 <random@plt>:
  400ec0:	ff 25 0a 32 20 00    	jmpq   *0x20320a(%rip)        # 6040d0 <random@GLIBC_2.2.5>
  400ec6:	68 17 00 00 00       	pushq  $0x17
  400ecb:	e9 70 fe ff ff       	jmpq   400d40 <.plt>

0000000000400ed0 <_IO_getc@plt>:
  400ed0:	ff 25 02 32 20 00    	jmpq   *0x203202(%rip)        # 6040d8 <_IO_getc@GLIBC_2.2.5>
  400ed6:	68 18 00 00 00       	pushq  $0x18
  400edb:	e9 60 fe ff ff       	jmpq   400d40 <.plt>

0000000000400ee0 <__isoc99_sscanf@plt>:
  400ee0:	ff 25 fa 31 20 00    	jmpq   *0x2031fa(%rip)        # 6040e0 <__isoc99_sscanf@GLIBC_2.7>
  400ee6:	68 19 00 00 00       	pushq  $0x19
  400eeb:	e9 50 fe ff ff       	jmpq   400d40 <.plt>

0000000000400ef0 <munmap@plt>:
  400ef0:	ff 25 f2 31 20 00    	jmpq   *0x2031f2(%rip)        # 6040e8 <munmap@GLIBC_2.2.5>
  400ef6:	68 1a 00 00 00       	pushq  $0x1a
  400efb:	e9 40 fe ff ff       	jmpq   400d40 <.plt>

0000000000400f00 <bcopy@plt>:
  400f00:	ff 25 ea 31 20 00    	jmpq   *0x2031ea(%rip)        # 6040f0 <bcopy@GLIBC_2.2.5>
  400f06:	68 1b 00 00 00       	pushq  $0x1b
  400f0b:	e9 30 fe ff ff       	jmpq   400d40 <.plt>

0000000000400f10 <bzero@plt>:
  400f10:	ff 25 e2 31 20 00    	jmpq   *0x2031e2(%rip)        # 6040f8 <bzero@GLIBC_2.2.5>
  400f16:	68 1c 00 00 00       	pushq  $0x1c
  400f1b:	e9 20 fe ff ff       	jmpq   400d40 <.plt>

0000000000400f20 <getopt@plt>:
  400f20:	ff 25 da 31 20 00    	jmpq   *0x2031da(%rip)        # 604100 <getopt@GLIBC_2.2.5>
  400f26:	68 1d 00 00 00       	pushq  $0x1d
  400f2b:	e9 10 fe ff ff       	jmpq   400d40 <.plt>

0000000000400f30 <gethostname@plt>:
  400f30:	ff 25 d2 31 20 00    	jmpq   *0x2031d2(%rip)        # 604108 <gethostname@GLIBC_2.2.5>
  400f36:	68 1e 00 00 00       	pushq  $0x1e
  400f3b:	e9 00 fe ff ff       	jmpq   400d40 <.plt>

0000000000400f40 <sprintf@plt>:
  400f40:	ff 25 ca 31 20 00    	jmpq   *0x2031ca(%rip)        # 604110 <sprintf@GLIBC_2.2.5>
  400f46:	68 1f 00 00 00       	pushq  $0x1f
  400f4b:	e9 f0 fd ff ff       	jmpq   400d40 <.plt>

0000000000400f50 <exit@plt>:
  400f50:	ff 25 c2 31 20 00    	jmpq   *0x2031c2(%rip)        # 604118 <exit@GLIBC_2.2.5>
  400f56:	68 20 00 00 00       	pushq  $0x20
  400f5b:	e9 e0 fd ff ff       	jmpq   400d40 <.plt>

0000000000400f60 <connect@plt>:
  400f60:	ff 25 ba 31 20 00    	jmpq   *0x2031ba(%rip)        # 604120 <connect@GLIBC_2.2.5>
  400f66:	68 21 00 00 00       	pushq  $0x21
  400f6b:	e9 d0 fd ff ff       	jmpq   400d40 <.plt>

0000000000400f70 <fwrite@plt>:
  400f70:	ff 25 b2 31 20 00    	jmpq   *0x2031b2(%rip)        # 604128 <fwrite@GLIBC_2.2.5>
  400f76:	68 22 00 00 00       	pushq  $0x22
  400f7b:	e9 c0 fd ff ff       	jmpq   400d40 <.plt>

0000000000400f80 <strdup@plt>:
  400f80:	ff 25 aa 31 20 00    	jmpq   *0x2031aa(%rip)        # 604130 <strdup@GLIBC_2.2.5>
  400f86:	68 23 00 00 00       	pushq  $0x23
  400f8b:	e9 b0 fd ff ff       	jmpq   400d40 <.plt>

0000000000400f90 <rand@plt>:
  400f90:	ff 25 a2 31 20 00    	jmpq   *0x2031a2(%rip)        # 604138 <rand@GLIBC_2.2.5>
  400f96:	68 24 00 00 00       	pushq  $0x24
  400f9b:	e9 a0 fd ff ff       	jmpq   400d40 <.plt>

0000000000400fa0 <socket@plt>:
  400fa0:	ff 25 9a 31 20 00    	jmpq   *0x20319a(%rip)        # 604140 <socket@GLIBC_2.2.5>
  400fa6:	68 25 00 00 00       	pushq  $0x25
  400fab:	e9 90 fd ff ff       	jmpq   400d40 <.plt>

Disassembly of section .plt.got:

0000000000400fb0 <__gmon_start__@plt>:
  400fb0:	ff 25 42 30 20 00    	jmpq   *0x203042(%rip)        # 603ff8 <__gmon_start__>
  400fb6:	66 90                	xchg   %ax,%ax

Disassembly of section .text:

0000000000400fc0 <_start>:
  400fc0:	31 ed                	xor    %ebp,%ebp
  400fc2:	49 89 d1             	mov    %rdx,%r9
  400fc5:	5e                   	pop    %rsi
  400fc6:	48 89 e2             	mov    %rsp,%rdx
  400fc9:	48 83 e4 f0          	and    $0xfffffffffffffff0,%rsp
  400fcd:	50                   	push   %rax
  400fce:	54                   	push   %rsp
  400fcf:	49 c7 c0 20 2b 40 00 	mov    $0x402b20,%r8
  400fd6:	48 c7 c1 b0 2a 40 00 	mov    $0x402ab0,%rcx
  400fdd:	48 c7 c7 6b 16 40 00 	mov    $0x40166b,%rdi
  400fe4:	e8 67 fe ff ff       	callq  400e50 <__libc_start_main@plt>
  400fe9:	f4                   	hlt    
  400fea:	66 0f 1f 44 00 00    	nopw   0x0(%rax,%rax,1)

0000000000400ff0 <deregister_tm_clones>:
  400ff0:	b8 9f 61 60 00       	mov    $0x60619f,%eax
  400ff5:	55                   	push   %rbp
  400ff6:	48 2d 98 61 60 00    	sub    $0x606198,%rax
  400ffc:	48 83 f8 0e          	cmp    $0xe,%rax
  401000:	48 89 e5             	mov    %rsp,%rbp
  401003:	76 1b                	jbe    401020 <deregister_tm_clones+0x30>
  401005:	b8 00 00 00 00       	mov    $0x0,%eax
  40100a:	48 85 c0             	test   %rax,%rax
  40100d:	74 11                	je     401020 <deregister_tm_clones+0x30>
  40100f:	5d                   	pop    %rbp
  401010:	bf 98 61 60 00       	mov    $0x606198,%edi
  401015:	ff e0                	jmpq   *%rax
  401017:	66 0f 1f 84 00 00 00 	nopw   0x0(%rax,%rax,1)
  40101e:	00 00 
  401020:	5d                   	pop    %rbp
  401021:	c3                   	retq   
  401022:	0f 1f 40 00          	nopl   0x0(%rax)
  401026:	66 2e 0f 1f 84 00 00 	nopw   %cs:0x0(%rax,%rax,1)
  40102d:	00 00 00 

0000000000401030 <register_tm_clones>:
  401030:	be 98 61 60 00       	mov    $0x606198,%esi
  401035:	55                   	push   %rbp
  401036:	48 81 ee 98 61 60 00 	sub    $0x606198,%rsi
  40103d:	48 c1 fe 03          	sar    $0x3,%rsi
  401041:	48 89 e5             	mov    %rsp,%rbp
  401044:	48 89 f0             	mov    %rsi,%rax
  401047:	48 c1 e8 3f          	shr    $0x3f,%rax
  40104b:	48 01 c6             	add    %rax,%rsi
  40104e:	48 d1 fe             	sar    %rsi
  401051:	74 15                	je     401068 <register_tm_clones+0x38>
  401053:	b8 00 00 00 00       	mov    $0x0,%eax
  401058:	48 85 c0             	test   %rax,%rax
  40105b:	74 0b                	je     401068 <register_tm_clones+0x38>
  40105d:	5d                   	pop    %rbp
  40105e:	bf 98 61 60 00       	mov    $0x606198,%edi
  401063:	ff e0                	jmpq   *%rax
  401065:	0f 1f 00             	nopl   (%rax)
  401068:	5d                   	pop    %rbp
  401069:	c3                   	retq   
  40106a:	66 0f 1f 44 00 00    	nopw   0x0(%rax,%rax,1)

0000000000401070 <__do_global_dtors_aux>:
  401070:	80 3d 51 51 20 00 00 	cmpb   $0x0,0x205151(%rip)        # 6061c8 <completed.7585>
  401077:	75 11                	jne    40108a <__do_global_dtors_aux+0x1a>
  401079:	55                   	push   %rbp
  40107a:	48 89 e5             	mov    %rsp,%rbp
  40107d:	e8 6e ff ff ff       	callq  400ff0 <deregister_tm_clones>
  401082:	5d                   	pop    %rbp
  401083:	c6 05 3e 51 20 00 01 	movb   $0x1,0x20513e(%rip)        # 6061c8 <completed.7585>
  40108a:	f3 c3                	repz retq 
  40108c:	0f 1f 40 00          	nopl   0x0(%rax)

0000000000401090 <frame_dummy>:
  401090:	bf 20 3e 60 00       	mov    $0x603e20,%edi
  401095:	48 83 3f 00          	cmpq   $0x0,(%rdi)
  401099:	75 05                	jne    4010a0 <frame_dummy+0x10>
  40109b:	eb 93                	jmp    401030 <register_tm_clones>
  40109d:	0f 1f 00             	nopl   (%rax)
  4010a0:	b8 00 00 00 00       	mov    $0x0,%eax
  4010a5:	48 85 c0             	test   %rax,%rax
  4010a8:	74 f1                	je     40109b <frame_dummy+0xb>
  4010aa:	55                   	push   %rbp
  4010ab:	48 89 e5             	mov    %rsp,%rbp
  4010ae:	ff d0                	callq  *%rax
  4010b0:	5d                   	pop    %rbp
  4010b1:	e9 7a ff ff ff       	jmpq   401030 <register_tm_clones>

00000000004010b6 <smoke>:
  4010b6:	55                   	push   %rbp
  4010b7:	48 89 e5             	mov    %rsp,%rbp
  4010ba:	bf 38 2b 40 00       	mov    $0x402b38,%edi
  4010bf:	e8 cc fc ff ff       	callq  400d90 <puts@plt>
  4010c4:	bf 00 00 00 00       	mov    $0x0,%edi
  4010c9:	e8 40 09 00 00       	callq  401a0e <validate>
  4010ce:	bf 00 00 00 00       	mov    $0x0,%edi
  4010d3:	e8 78 fe ff ff       	callq  400f50 <exit@plt>

00000000004010d8 <fizz>:
  4010d8:	55                   	push   %rbp
  4010d9:	48 89 e5             	mov    %rsp,%rbp
  4010dc:	48 83 ec 10          	sub    $0x10,%rsp
  4010e0:	89 7d fc             	mov    %edi,-0x4(%rbp)
  4010e3:	8b 55 fc             	mov    -0x4(%rbp),%edx
  4010e6:	8b 05 fc 50 20 00    	mov    0x2050fc(%rip),%eax        # 6061e8 <cookie>
  4010ec:	39 c2                	cmp    %eax,%edx
  4010ee:	75 20                	jne    401110 <fizz+0x38>
  4010f0:	8b 45 fc             	mov    -0x4(%rbp),%eax
  4010f3:	89 c6                	mov    %eax,%esi
  4010f5:	bf 53 2b 40 00       	mov    $0x402b53,%edi
  4010fa:	b8 00 00 00 00       	mov    $0x0,%eax
  4010ff:	e8 fc fc ff ff       	callq  400e00 <printf@plt>
  401104:	bf 01 00 00 00       	mov    $0x1,%edi
  401109:	e8 00 09 00 00       	callq  401a0e <validate>
  40110e:	eb 14                	jmp    401124 <fizz+0x4c>
  401110:	8b 45 fc             	mov    -0x4(%rbp),%eax
  401113:	89 c6                	mov    %eax,%esi
  401115:	bf 78 2b 40 00       	mov    $0x402b78,%edi
  40111a:	b8 00 00 00 00       	mov    $0x0,%eax
  40111f:	e8 dc fc ff ff       	callq  400e00 <printf@plt>
  401124:	bf 00 00 00 00       	mov    $0x0,%edi
  401129:	e8 22 fe ff ff       	callq  400f50 <exit@plt>

000000000040112e <bang>:
  40112e:	55                   	push   %rbp
  40112f:	48 89 e5             	mov    %rsp,%rbp
  401132:	48 83 ec 10          	sub    $0x10,%rsp
  401136:	89 7d fc             	mov    %edi,-0x4(%rbp)
  401139:	8b 05 b1 50 20 00    	mov    0x2050b1(%rip),%eax        # 6061f0 <global_value>
  40113f:	89 c2                	mov    %eax,%edx
  401141:	8b 05 a1 50 20 00    	mov    0x2050a1(%rip),%eax        # 6061e8 <cookie>
  401147:	39 c2                	cmp    %eax,%edx
  401149:	75 23                	jne    40116e <bang+0x40>
  40114b:	8b 05 9f 50 20 00    	mov    0x20509f(%rip),%eax        # 6061f0 <global_value>
  401151:	89 c6                	mov    %eax,%esi
  401153:	bf 98 2b 40 00       	mov    $0x402b98,%edi
  401158:	b8 00 00 00 00       	mov    $0x0,%eax
  40115d:	e8 9e fc ff ff       	callq  400e00 <printf@plt>
  401162:	bf 02 00 00 00       	mov    $0x2,%edi
  401167:	e8 a2 08 00 00       	callq  401a0e <validate>
  40116c:	eb 17                	jmp    401185 <bang+0x57>
  40116e:	8b 05 7c 50 20 00    	mov    0x20507c(%rip),%eax        # 6061f0 <global_value>
  401174:	89 c6                	mov    %eax,%esi
  401176:	bf bd 2b 40 00       	mov    $0x402bbd,%edi
  40117b:	b8 00 00 00 00       	mov    $0x0,%eax
  401180:	e8 7b fc ff ff       	callq  400e00 <printf@plt>
  401185:	bf 00 00 00 00       	mov    $0x0,%edi
  40118a:	e8 c1 fd ff ff       	callq  400f50 <exit@plt>

000000000040118f <test>:
  40118f:	55                   	push   %rbp
  401190:	48 89 e5             	mov    %rsp,%rbp
  401193:	48 83 ec 10          	sub    $0x10,%rsp
  401197:	b8 00 00 00 00       	mov    $0x0,%eax
  40119c:	e8 b3 04 00 00       	callq  401654 <uniqueval>
  4011a1:	89 45 f8             	mov    %eax,-0x8(%rbp)
  4011a4:	b8 00 00 00 00       	mov    $0x0,%eax
  4011a9:	e8 0b 07 00 00       	callq  4018b9 <getbuf>
  4011ae:	89 45 fc             	mov    %eax,-0x4(%rbp)
  4011b1:	b8 00 00 00 00       	mov    $0x0,%eax
  4011b6:	e8 99 04 00 00       	callq  401654 <uniqueval>
  4011bb:	89 c2                	mov    %eax,%edx
  4011bd:	8b 45 f8             	mov    -0x8(%rbp),%eax
  4011c0:	39 c2                	cmp    %eax,%edx
  4011c2:	74 0c                	je     4011d0 <test+0x41>
  4011c4:	bf e0 2b 40 00       	mov    $0x402be0,%edi
  4011c9:	e8 c2 fb ff ff       	callq  400d90 <puts@plt>
  4011ce:	eb 41                	jmp    401211 <test+0x82>
  4011d0:	8b 55 fc             	mov    -0x4(%rbp),%edx
  4011d3:	8b 05 0f 50 20 00    	mov    0x20500f(%rip),%eax        # 6061e8 <cookie>
  4011d9:	39 c2                	cmp    %eax,%edx
  4011db:	75 20                	jne    4011fd <test+0x6e>
  4011dd:	8b 45 fc             	mov    -0x4(%rbp),%eax
  4011e0:	89 c6                	mov    %eax,%esi
  4011e2:	bf 09 2c 40 00       	mov    $0x402c09,%edi
  4011e7:	b8 00 00 00 00       	mov    $0x0,%eax
  4011ec:	e8 0f fc ff ff       	callq  400e00 <printf@plt>
  4011f1:	bf 03 00 00 00       	mov    $0x3,%edi
  4011f6:	e8 13 08 00 00       	callq  401a0e <validate>
  4011fb:	eb 14                	jmp    401211 <test+0x82>
  4011fd:	8b 45 fc             	mov    -0x4(%rbp),%eax
  401200:	89 c6                	mov    %eax,%esi
  401202:	bf 26 2c 40 00       	mov    $0x402c26,%edi
  401207:	b8 00 00 00 00       	mov    $0x0,%eax
  40120c:	e8 ef fb ff ff       	callq  400e00 <printf@plt>
  401211:	90                   	nop
  401212:	c9                   	leaveq 
  401213:	c3                   	retq   

0000000000401214 <testn>:
  401214:	55                   	push   %rbp
  401215:	48 89 e5             	mov    %rsp,%rbp
  401218:	48 83 ec 10          	sub    $0x10,%rsp
  40121c:	b8 00 00 00 00       	mov    $0x0,%eax
  401221:	e8 2e 04 00 00       	callq  401654 <uniqueval>
  401226:	89 45 f8             	mov    %eax,-0x8(%rbp)
  401229:	b8 00 00 00 00       	mov    $0x0,%eax
  40122e:	e8 a1 06 00 00       	callq  4018d4 <getbufn>
  401233:	89 45 fc             	mov    %eax,-0x4(%rbp)
  401236:	b8 00 00 00 00       	mov    $0x0,%eax
  40123b:	e8 14 04 00 00       	callq  401654 <uniqueval>
  401240:	89 c2                	mov    %eax,%edx
  401242:	8b 45 f8             	mov    -0x8(%rbp),%eax
  401245:	39 c2                	cmp    %eax,%edx
  401247:	74 0c                	je     401255 <testn+0x41>
  401249:	bf e0 2b 40 00       	mov    $0x402be0,%edi
  40124e:	e8 3d fb ff ff       	callq  400d90 <puts@plt>
  401253:	eb 41                	jmp    401296 <testn+0x82>
  401255:	8b 55 fc             	mov    -0x4(%rbp),%edx
  401258:	8b 05 8a 4f 20 00    	mov    0x204f8a(%rip),%eax        # 6061e8 <cookie>
  40125e:	39 c2                	cmp    %eax,%edx
  401260:	75 20                	jne    401282 <testn+0x6e>
  401262:	8b 45 fc             	mov    -0x4(%rbp),%eax
  401265:	89 c6                	mov    %eax,%esi
  401267:	bf 48 2c 40 00       	mov    $0x402c48,%edi
  40126c:	b8 00 00 00 00       	mov    $0x0,%eax
  401271:	e8 8a fb ff ff       	callq  400e00 <printf@plt>
  401276:	bf 04 00 00 00       	mov    $0x4,%edi
  40127b:	e8 8e 07 00 00       	callq  401a0e <validate>
  401280:	eb 14                	jmp    401296 <testn+0x82>
  401282:	8b 45 fc             	mov    -0x4(%rbp),%eax
  401285:	89 c6                	mov    %eax,%esi
  401287:	bf 68 2c 40 00       	mov    $0x402c68,%edi
  40128c:	b8 00 00 00 00       	mov    $0x0,%eax
  401291:	e8 6a fb ff ff       	callq  400e00 <printf@plt>
  401296:	90                   	nop
  401297:	c9                   	leaveq 
  401298:	c3                   	retq   

0000000000401299 <save_char>:
  401299:	55                   	push   %rbp
  40129a:	48 89 e5             	mov    %rsp,%rbp
  40129d:	89 f8                	mov    %edi,%eax
  40129f:	88 45 fc             	mov    %al,-0x4(%rbp)
  4012a2:	8b 05 4c 4f 20 00    	mov    0x204f4c(%rip),%eax        # 6061f4 <gets_cnt>
  4012a8:	3d ff 03 00 00       	cmp    $0x3ff,%eax
  4012ad:	7f 7b                	jg     40132a <save_char+0x91>
  4012af:	8b 15 3f 4f 20 00    	mov    0x204f3f(%rip),%edx        # 6061f4 <gets_cnt>
  4012b5:	89 d0                	mov    %edx,%eax
  4012b7:	01 c0                	add    %eax,%eax
  4012b9:	8d 0c 10             	lea    (%rax,%rdx,1),%ecx
  4012bc:	0f b6 45 fc          	movzbl -0x4(%rbp),%eax
  4012c0:	c0 f8 04             	sar    $0x4,%al
  4012c3:	0f be c0             	movsbl %al,%eax
  4012c6:	83 e0 0f             	and    $0xf,%eax
  4012c9:	48 98                	cltq   
  4012cb:	0f b6 90 70 41 60 00 	movzbl 0x604170(%rax),%edx
  4012d2:	48 63 c1             	movslq %ecx,%rax
  4012d5:	88 90 40 62 60 00    	mov    %dl,0x606240(%rax)
  4012db:	8b 15 13 4f 20 00    	mov    0x204f13(%rip),%edx        # 6061f4 <gets_cnt>
  4012e1:	89 d0                	mov    %edx,%eax
  4012e3:	01 c0                	add    %eax,%eax
  4012e5:	01 d0                	add    %edx,%eax
  4012e7:	8d 48 01             	lea    0x1(%rax),%ecx
  4012ea:	0f be 45 fc          	movsbl -0x4(%rbp),%eax
  4012ee:	83 e0 0f             	and    $0xf,%eax
  4012f1:	48 98                	cltq   
  4012f3:	0f b6 90 70 41 60 00 	movzbl 0x604170(%rax),%edx
  4012fa:	48 63 c1             	movslq %ecx,%rax
  4012fd:	88 90 40 62 60 00    	mov    %dl,0x606240(%rax)
  401303:	8b 15 eb 4e 20 00    	mov    0x204eeb(%rip),%edx        # 6061f4 <gets_cnt>
  401309:	89 d0                	mov    %edx,%eax
  40130b:	01 c0                	add    %eax,%eax
  40130d:	01 d0                	add    %edx,%eax
  40130f:	83 c0 02             	add    $0x2,%eax
  401312:	48 98                	cltq   
  401314:	c6 80 40 62 60 00 20 	movb   $0x20,0x606240(%rax)
  40131b:	8b 05 d3 4e 20 00    	mov    0x204ed3(%rip),%eax        # 6061f4 <gets_cnt>
  401321:	83 c0 01             	add    $0x1,%eax
  401324:	89 05 ca 4e 20 00    	mov    %eax,0x204eca(%rip)        # 6061f4 <gets_cnt>
  40132a:	90                   	nop
  40132b:	5d                   	pop    %rbp
  40132c:	c3                   	retq   

000000000040132d <save_term>:
  40132d:	55                   	push   %rbp
  40132e:	48 89 e5             	mov    %rsp,%rbp
  401331:	8b 15 bd 4e 20 00    	mov    0x204ebd(%rip),%edx        # 6061f4 <gets_cnt>
  401337:	89 d0                	mov    %edx,%eax
  401339:	01 c0                	add    %eax,%eax
  40133b:	01 d0                	add    %edx,%eax
  40133d:	48 98                	cltq   
  40133f:	c6 80 40 62 60 00 00 	movb   $0x0,0x606240(%rax)
  401346:	90                   	nop
  401347:	5d                   	pop    %rbp
  401348:	c3                   	retq   

0000000000401349 <Gets>:
  401349:	55                   	push   %rbp
  40134a:	48 89 e5             	mov    %rsp,%rbp
  40134d:	48 83 ec 20          	sub    $0x20,%rsp
  401351:	48 89 7d e8          	mov    %rdi,-0x18(%rbp)
  401355:	48 8b 45 e8          	mov    -0x18(%rbp),%rax
  401359:	48 89 45 f8          	mov    %rax,-0x8(%rbp)
  40135d:	c7 05 8d 4e 20 00 00 	movl   $0x0,0x204e8d(%rip)        # 6061f4 <gets_cnt>
  401364:	00 00 00 
  401367:	eb 1e                	jmp    401387 <Gets+0x3e>
  401369:	48 8b 45 f8          	mov    -0x8(%rbp),%rax
  40136d:	48 8d 50 01          	lea    0x1(%rax),%rdx
  401371:	48 89 55 f8          	mov    %rdx,-0x8(%rbp)
  401375:	8b 55 f4             	mov    -0xc(%rbp),%edx
  401378:	88 10                	mov    %dl,(%rax)
  40137a:	8b 45 f4             	mov    -0xc(%rbp),%eax
  40137d:	0f be c0             	movsbl %al,%eax
  401380:	89 c7                	mov    %eax,%edi
  401382:	e8 12 ff ff ff       	callq  401299 <save_char>
  401387:	48 8b 05 52 4e 20 00 	mov    0x204e52(%rip),%rax        # 6061e0 <infile>
  40138e:	48 89 c7             	mov    %rax,%rdi
  401391:	e8 3a fb ff ff       	callq  400ed0 <_IO_getc@plt>
  401396:	89 45 f4             	mov    %eax,-0xc(%rbp)
  401399:	83 7d f4 ff          	cmpl   $0xffffffff,-0xc(%rbp)
  40139d:	74 06                	je     4013a5 <Gets+0x5c>
  40139f:	83 7d f4 0a          	cmpl   $0xa,-0xc(%rbp)
  4013a3:	75 c4                	jne    401369 <Gets+0x20>
  4013a5:	48 8b 45 f8          	mov    -0x8(%rbp),%rax
  4013a9:	48 8d 50 01          	lea    0x1(%rax),%rdx
  4013ad:	48 89 55 f8          	mov    %rdx,-0x8(%rbp)
  4013b1:	c6 00 00             	movb   $0x0,(%rax)
  4013b4:	b8 00 00 00 00       	mov    $0x0,%eax
  4013b9:	e8 6f ff ff ff       	callq  40132d <save_term>
  4013be:	48 8b 45 e8          	mov    -0x18(%rbp),%rax
  4013c2:	c9                   	leaveq 
  4013c3:	c3                   	retq   

00000000004013c4 <usage>:
  4013c4:	55                   	push   %rbp
  4013c5:	48 89 e5             	mov    %rsp,%rbp
  4013c8:	48 83 ec 10          	sub    $0x10,%rsp
  4013cc:	48 89 7d f8          	mov    %rdi,-0x8(%rbp)
  4013d0:	48 8b 45 f8          	mov    -0x8(%rbp),%rax
  4013d4:	48 89 c6             	mov    %rax,%rsi
  4013d7:	bf 84 2c 40 00       	mov    $0x402c84,%edi
  4013dc:	b8 00 00 00 00       	mov    $0x0,%eax
  4013e1:	e8 1a fa ff ff       	callq  400e00 <printf@plt>
  4013e6:	bf a2 2c 40 00       	mov    $0x402ca2,%edi
  4013eb:	e8 a0 f9 ff ff       	callq  400d90 <puts@plt>
  4013f0:	bf b8 2c 40 00       	mov    $0x402cb8,%edi
  4013f5:	e8 96 f9 ff ff       	callq  400d90 <puts@plt>
  4013fa:	bf d8 2c 40 00       	mov    $0x402cd8,%edi
  4013ff:	e8 8c f9 ff ff       	callq  400d90 <puts@plt>
  401404:	bf 18 2d 40 00       	mov    $0x402d18,%edi
  401409:	e8 82 f9 ff ff       	callq  400d90 <puts@plt>
  40140e:	bf 00 00 00 00       	mov    $0x0,%edi
  401413:	e8 38 fb ff ff       	callq  400f50 <exit@plt>

0000000000401418 <bushandler>:
  401418:	55                   	push   %rbp
  401419:	48 89 e5             	mov    %rsp,%rbp
  40141c:	48 83 ec 10          	sub    $0x10,%rsp
  401420:	89 7d fc             	mov    %edi,-0x4(%rbp)
  401423:	bf 40 2d 40 00       	mov    $0x402d40,%edi
  401428:	e8 63 f9 ff ff       	callq  400d90 <puts@plt>
  40142d:	bf 60 2d 40 00       	mov    $0x402d60,%edi
  401432:	e8 59 f9 ff ff       	callq  400d90 <puts@plt>
  401437:	bf 00 00 00 00       	mov    $0x0,%edi
  40143c:	e8 0f fb ff ff       	callq  400f50 <exit@plt>

0000000000401441 <seghandler>:
  401441:	55                   	push   %rbp
  401442:	48 89 e5             	mov    %rsp,%rbp
  401445:	48 83 ec 10          	sub    $0x10,%rsp
  401449:	89 7d fc             	mov    %edi,-0x4(%rbp)
  40144c:	bf 78 2d 40 00       	mov    $0x402d78,%edi
  401451:	e8 3a f9 ff ff       	callq  400d90 <puts@plt>
  401456:	bf 60 2d 40 00       	mov    $0x402d60,%edi
  40145b:	e8 30 f9 ff ff       	callq  400d90 <puts@plt>
  401460:	bf 00 00 00 00       	mov    $0x0,%edi
  401465:	e8 e6 fa ff ff       	callq  400f50 <exit@plt>

000000000040146a <illegalhandler>:
  40146a:	55                   	push   %rbp
  40146b:	48 89 e5             	mov    %rsp,%rbp
  40146e:	48 83 ec 10          	sub    $0x10,%rsp
  401472:	89 7d fc             	mov    %edi,-0x4(%rbp)
  401475:	bf a0 2d 40 00       	mov    $0x402da0,%edi
  40147a:	e8 11 f9 ff ff       	callq  400d90 <puts@plt>
  40147f:	bf 60 2d 40 00       	mov    $0x402d60,%edi
  401484:	e8 07 f9 ff ff       	callq  400d90 <puts@plt>
  401489:	bf 00 00 00 00       	mov    $0x0,%edi
  40148e:	e8 bd fa ff ff       	callq  400f50 <exit@plt>

0000000000401493 <launch>:
  401493:	55                   	push   %rbp
  401494:	48 89 e5             	mov    %rsp,%rbp
  401497:	48 83 ec 70          	sub    $0x70,%rsp
  40149b:	89 7d 9c             	mov    %edi,-0x64(%rbp)
  40149e:	89 75 98             	mov    %esi,-0x68(%rbp)
  4014a1:	64 48 8b 04 25 28 00 	mov    %fs:0x28,%rax
  4014a8:	00 00 
  4014aa:	48 89 45 f8          	mov    %rax,-0x8(%rbp)
  4014ae:	31 c0                	xor    %eax,%eax
  4014b0:	48 c7 45 a0 00 00 00 	movq   $0x0,-0x60(%rbp)
  4014b7:	00 
  4014b8:	48 8d 45 b0          	lea    -0x50(%rbp),%rax
  4014bc:	25 f0 3f 00 00       	and    $0x3ff0,%eax
  4014c1:	48 89 45 a0          	mov    %rax,-0x60(%rbp)
  4014c5:	8b 45 98             	mov    -0x68(%rbp),%eax
  4014c8:	48 63 d0             	movslq %eax,%rdx
  4014cb:	48 8b 45 a0          	mov    -0x60(%rbp),%rax
  4014cf:	48 01 d0             	add    %rdx,%rax
  4014d2:	48 8d 50 0f          	lea    0xf(%rax),%rdx
  4014d6:	b8 10 00 00 00       	mov    $0x10,%eax
  4014db:	48 83 e8 01          	sub    $0x1,%rax
  4014df:	48 01 d0             	add    %rdx,%rax
  4014e2:	b9 10 00 00 00       	mov    $0x10,%ecx
  4014e7:	ba 00 00 00 00       	mov    $0x0,%edx
  4014ec:	48 f7 f1             	div    %rcx
  4014ef:	48 6b c0 10          	imul   $0x10,%rax,%rax
  4014f3:	48 29 c4             	sub    %rax,%rsp
  4014f6:	48 89 e0             	mov    %rsp,%rax
  4014f9:	48 83 c0 0f          	add    $0xf,%rax
  4014fd:	48 c1 e8 04          	shr    $0x4,%rax
  401501:	48 c1 e0 04          	shl    $0x4,%rax
  401505:	48 89 45 a8          	mov    %rax,-0x58(%rbp)
  401509:	48 8b 55 a0          	mov    -0x60(%rbp),%rdx
  40150d:	48 8b 45 a8          	mov    -0x58(%rbp),%rax
  401511:	be f4 00 00 00       	mov    $0xf4,%esi
  401516:	48 89 c7             	mov    %rax,%rdi
  401519:	e8 f2 f8 ff ff       	callq  400e10 <memset@plt>
  40151e:	bf cb 2d 40 00       	mov    $0x402dcb,%edi
  401523:	b8 00 00 00 00       	mov    $0x0,%eax
  401528:	e8 d3 f8 ff ff       	callq  400e00 <printf@plt>
  40152d:	83 7d 9c 00          	cmpl   $0x0,-0x64(%rbp)
  401531:	74 0c                	je     40153f <launch+0xac>
  401533:	b8 00 00 00 00       	mov    $0x0,%eax
  401538:	e8 d7 fc ff ff       	callq  401214 <testn>
  40153d:	eb 0a                	jmp    401549 <launch+0xb6>
  40153f:	b8 00 00 00 00       	mov    $0x0,%eax
  401544:	e8 46 fc ff ff       	callq  40118f <test>
  401549:	8b 05 9d 4c 20 00    	mov    0x204c9d(%rip),%eax        # 6061ec <success>
  40154f:	85 c0                	test   %eax,%eax
  401551:	75 14                	jne    401567 <launch+0xd4>
  401553:	bf 60 2d 40 00       	mov    $0x402d60,%edi
  401558:	e8 33 f8 ff ff       	callq  400d90 <puts@plt>
  40155d:	c7 05 85 4c 20 00 00 	movl   $0x0,0x204c85(%rip)        # 6061ec <success>
  401564:	00 00 00 
  401567:	90                   	nop
  401568:	48 8b 45 f8          	mov    -0x8(%rbp),%rax
  40156c:	64 48 33 04 25 28 00 	xor    %fs:0x28,%rax
  401573:	00 00 
  401575:	74 05                	je     40157c <launch+0xe9>
  401577:	e8 54 f8 ff ff       	callq  400dd0 <__stack_chk_fail@plt>
  40157c:	c9                   	leaveq 
  40157d:	c3                   	retq   

000000000040157e <launcher>:
  40157e:	55                   	push   %rbp
  40157f:	48 89 e5             	mov    %rsp,%rbp
  401582:	48 83 ec 20          	sub    $0x20,%rsp
  401586:	89 7d ec             	mov    %edi,-0x14(%rbp)
  401589:	89 75 e8             	mov    %esi,-0x18(%rbp)
  40158c:	8b 45 ec             	mov    -0x14(%rbp),%eax
  40158f:	89 05 63 4c 20 00    	mov    %eax,0x204c63(%rip)        # 6061f8 <global_nitro>
  401595:	8b 45 e8             	mov    -0x18(%rbp),%eax
  401598:	89 05 5e 4c 20 00    	mov    %eax,0x204c5e(%rip)        # 6061fc <global_offset>
  40159e:	41 b9 00 00 00 00    	mov    $0x0,%r9d
  4015a4:	41 b8 00 00 00 00    	mov    $0x0,%r8d
  4015aa:	b9 32 01 00 00       	mov    $0x132,%ecx
  4015af:	ba 07 00 00 00       	mov    $0x7,%edx
  4015b4:	be 00 00 10 00       	mov    $0x100000,%esi
  4015b9:	bf 00 60 58 55       	mov    $0x55586000,%edi
  4015be:	e8 1d f8 ff ff       	callq  400de0 <mmap@plt>
  4015c3:	48 89 45 f8          	mov    %rax,-0x8(%rbp)
  4015c7:	48 81 7d f8 00 60 58 	cmpq   $0x55586000,-0x8(%rbp)
  4015ce:	55 
  4015cf:	74 28                	je     4015f9 <launcher+0x7b>
  4015d1:	48 8b 05 e8 4b 20 00 	mov    0x204be8(%rip),%rax        # 6061c0 <stderr@@GLIBC_2.2.5>
  4015d8:	48 89 c1             	mov    %rax,%rcx
  4015db:	ba 47 00 00 00       	mov    $0x47,%edx
  4015e0:	be 01 00 00 00       	mov    $0x1,%esi
  4015e5:	bf d8 2d 40 00       	mov    $0x402dd8,%edi
  4015ea:	e8 81 f9 ff ff       	callq  400f70 <fwrite@plt>
  4015ef:	bf 01 00 00 00       	mov    $0x1,%edi
  4015f4:	e8 57 f9 ff ff       	callq  400f50 <exit@plt>
  4015f9:	48 8b 45 f8          	mov    -0x8(%rbp),%rax
  4015fd:	48 05 f0 ff 0f 00    	add    $0xffff0,%rax
  401603:	48 89 05 16 4c 20 00 	mov    %rax,0x204c16(%rip)        # 606220 <stack_top>
  40160a:	48 8b 15 0f 4c 20 00 	mov    0x204c0f(%rip),%rdx        # 606220 <stack_top>
  401611:	48 89 e0             	mov    %rsp,%rax
  401614:	48 89 d4             	mov    %rdx,%rsp
  401617:	48 89 c2             	mov    %rax,%rdx
  40161a:	48 89 15 df 4b 20 00 	mov    %rdx,0x204bdf(%rip)        # 606200 <global_save_stack>
  401621:	8b 15 d5 4b 20 00    	mov    0x204bd5(%rip),%edx        # 6061fc <global_offset>
  401627:	8b 05 cb 4b 20 00    	mov    0x204bcb(%rip),%eax        # 6061f8 <global_nitro>
  40162d:	89 d6                	mov    %edx,%esi
  40162f:	89 c7                	mov    %eax,%edi
  401631:	e8 5d fe ff ff       	callq  401493 <launch>
  401636:	48 8b 05 c3 4b 20 00 	mov    0x204bc3(%rip),%rax        # 606200 <global_save_stack>
  40163d:	48 89 c4             	mov    %rax,%rsp
  401640:	48 8b 45 f8          	mov    -0x8(%rbp),%rax
  401644:	be 00 00 10 00       	mov    $0x100000,%esi
  401649:	48 89 c7             	mov    %rax,%rdi
  40164c:	e8 9f f8 ff ff       	callq  400ef0 <munmap@plt>
  401651:	90                   	nop
  401652:	c9                   	leaveq 
  401653:	c3                   	retq   

0000000000401654 <uniqueval>:
  401654:	55                   	push   %rbp
  401655:	48 89 e5             	mov    %rsp,%rbp
  401658:	e8 53 f7 ff ff       	callq  400db0 <getpid@plt>
  40165d:	89 c7                	mov    %eax,%edi
  40165f:	e8 0c f7 ff ff       	callq  400d70 <srandom@plt>
  401664:	e8 57 f8 ff ff       	callq  400ec0 <random@plt>
  401669:	5d                   	pop    %rbp
  40166a:	c3                   	retq   

000000000040166b <main>:
  40166b:	55                   	push   %rbp
  40166c:	48 89 e5             	mov    %rsp,%rbp
  40166f:	53                   	push   %rbx
  401670:	48 83 ec 38          	sub    $0x38,%rsp
  401674:	89 7d cc             	mov    %edi,-0x34(%rbp)
  401677:	48 89 75 c0          	mov    %rsi,-0x40(%rbp)
  40167b:	c7 45 e4 00 00 00 00 	movl   $0x0,-0x1c(%rbp)
  401682:	c7 45 d8 00 00 00 00 	movl   $0x0,-0x28(%rbp)
  401689:	c7 45 e0 01 00 00 00 	movl   $0x1,-0x20(%rbp)
  401690:	be 41 14 40 00       	mov    $0x401441,%esi
  401695:	bf 0b 00 00 00       	mov    $0xb,%edi
  40169a:	e8 f1 f7 ff ff       	callq  400e90 <signal@plt>
  40169f:	be 18 14 40 00       	mov    $0x401418,%esi
  4016a4:	bf 07 00 00 00       	mov    $0x7,%edi
  4016a9:	e8 e2 f7 ff ff       	callq  400e90 <signal@plt>
  4016ae:	be 6a 14 40 00       	mov    $0x40146a,%esi
  4016b3:	bf 04 00 00 00       	mov    $0x4,%edi
  4016b8:	e8 d3 f7 ff ff       	callq  400e90 <signal@plt>
  4016bd:	48 8b 05 dc 4a 20 00 	mov    0x204adc(%rip),%rax        # 6061a0 <stdin@@GLIBC_2.2.5>
  4016c4:	48 89 05 15 4b 20 00 	mov    %rax,0x204b15(%rip)        # 6061e0 <infile>
  4016cb:	e9 97 00 00 00       	jmpq   401767 <main+0xfc>
  4016d0:	0f be 45 d7          	movsbl -0x29(%rbp),%eax
  4016d4:	83 e8 67             	sub    $0x67,%eax
  4016d7:	83 f8 0e             	cmp    $0xe,%eax
  4016da:	77 7c                	ja     401758 <main+0xed>
  4016dc:	89 c0                	mov    %eax,%eax
  4016de:	48 8b 04 c5 98 2e 40 	mov    0x402e98(,%rax,8),%rax
  4016e5:	00 
  4016e6:	ff e0                	jmpq   *%rax
  4016e8:	48 8b 45 c0          	mov    -0x40(%rbp),%rax
  4016ec:	48 8b 00             	mov    (%rax),%rax
  4016ef:	48 89 c7             	mov    %rax,%rdi
  4016f2:	e8 cd fc ff ff       	callq  4013c4 <usage>
  4016f7:	eb 6e                	jmp    401767 <main+0xfc>
  4016f9:	c7 45 d8 01 00 00 00 	movl   $0x1,-0x28(%rbp)
  401700:	c7 45 e0 05 00 00 00 	movl   $0x5,-0x20(%rbp)
  401707:	eb 5e                	jmp    401767 <main+0xfc>
  401709:	48 8b 05 98 4a 20 00 	mov    0x204a98(%rip),%rax        # 6061a8 <optarg@@GLIBC_2.2.5>
  401710:	48 89 c7             	mov    %rax,%rdi
  401713:	e8 68 f8 ff ff       	callq  400f80 <strdup@plt>
  401718:	48 89 05 b1 4a 20 00 	mov    %rax,0x204ab1(%rip)        # 6061d0 <userid>
  40171f:	48 8b 05 aa 4a 20 00 	mov    0x204aaa(%rip),%rax        # 6061d0 <userid>
  401726:	48 89 c7             	mov    %rax,%rdi
  401729:	e8 40 13 00 00       	callq  402a6e <gencookie>
  40172e:	89 05 b4 4a 20 00    	mov    %eax,0x204ab4(%rip)        # 6061e8 <cookie>
  401734:	eb 31                	jmp    401767 <main+0xfc>
  401736:	bf 20 2e 40 00       	mov    $0x402e20,%edi
  40173b:	e8 50 f6 ff ff       	callq  400d90 <puts@plt>
  401740:	c7 05 8e 4a 20 00 00 	movl   $0x0,0x204a8e(%rip)        # 6061d8 <notify>
  401747:	00 00 00 
  40174a:	eb 1b                	jmp    401767 <main+0xfc>
  40174c:	c7 05 86 4a 20 00 01 	movl   $0x1,0x204a86(%rip)        # 6061dc <autograde>
  401753:	00 00 00 
  401756:	eb 0f                	jmp    401767 <main+0xfc>
  401758:	48 8b 45 c0          	mov    -0x40(%rbp),%rax
  40175c:	48 8b 00             	mov    (%rax),%rax
  40175f:	48 89 c7             	mov    %rax,%rdi
  401762:	e8 5d fc ff ff       	callq  4013c4 <usage>
  401767:	48 8b 4d c0          	mov    -0x40(%rbp),%rcx
  40176b:	8b 45 cc             	mov    -0x34(%rbp),%eax
  40176e:	ba 48 2e 40 00       	mov    $0x402e48,%edx
  401773:	48 89 ce             	mov    %rcx,%rsi
  401776:	89 c7                	mov    %eax,%edi
  401778:	e8 a3 f7 ff ff       	callq  400f20 <getopt@plt>
  40177d:	88 45 d7             	mov    %al,-0x29(%rbp)
  401780:	80 7d d7 ff          	cmpb   $0xff,-0x29(%rbp)
  401784:	0f 85 46 ff ff ff    	jne    4016d0 <main+0x65>
  40178a:	48 8b 05 3f 4a 20 00 	mov    0x204a3f(%rip),%rax        # 6061d0 <userid>
  401791:	48 85 c0             	test   %rax,%rax
  401794:	75 28                	jne    4017be <main+0x153>
  401796:	48 8b 45 c0          	mov    -0x40(%rbp),%rax
  40179a:	48 8b 00             	mov    (%rax),%rax
  40179d:	48 89 c6             	mov    %rax,%rsi
  4017a0:	bf 50 2e 40 00       	mov    $0x402e50,%edi
  4017a5:	b8 00 00 00 00       	mov    $0x0,%eax
  4017aa:	e8 51 f6 ff ff       	callq  400e00 <printf@plt>
  4017af:	48 8b 45 c0          	mov    -0x40(%rbp),%rax
  4017b3:	48 8b 00             	mov    (%rax),%rax
  4017b6:	48 89 c7             	mov    %rax,%rdi
  4017b9:	e8 06 fc ff ff       	callq  4013c4 <usage>
  4017be:	e8 32 01 00 00       	callq  4018f5 <initialize_bomb>
  4017c3:	48 8b 05 06 4a 20 00 	mov    0x204a06(%rip),%rax        # 6061d0 <userid>
  4017ca:	48 89 c6             	mov    %rax,%rsi
  4017cd:	bf 7c 2e 40 00       	mov    $0x402e7c,%edi
  4017d2:	b8 00 00 00 00       	mov    $0x0,%eax
  4017d7:	e8 24 f6 ff ff       	callq  400e00 <printf@plt>
  4017dc:	8b 05 06 4a 20 00    	mov    0x204a06(%rip),%eax        # 6061e8 <cookie>
  4017e2:	89 c6                	mov    %eax,%esi
  4017e4:	bf 88 2e 40 00       	mov    $0x402e88,%edi
  4017e9:	b8 00 00 00 00       	mov    $0x0,%eax
  4017ee:	e8 0d f6 ff ff       	callq  400e00 <printf@plt>
  4017f3:	8b 05 ef 49 20 00    	mov    0x2049ef(%rip),%eax        # 6061e8 <cookie>
  4017f9:	89 c7                	mov    %eax,%edi
  4017fb:	e8 70 f5 ff ff       	callq  400d70 <srandom@plt>
  401800:	e8 bb f6 ff ff       	callq  400ec0 <random@plt>
  401805:	25 f0 0f 00 00       	and    $0xff0,%eax
  40180a:	05 00 01 00 00       	add    $0x100,%eax
  40180f:	89 45 e4             	mov    %eax,-0x1c(%rbp)
  401812:	8b 45 e0             	mov    -0x20(%rbp),%eax
  401815:	48 98                	cltq   
  401817:	be 04 00 00 00       	mov    $0x4,%esi
  40181c:	48 89 c7             	mov    %rax,%rdi
  40181f:	e8 4c f6 ff ff       	callq  400e70 <calloc@plt>
  401824:	48 89 45 e8          	mov    %rax,-0x18(%rbp)
  401828:	48 8b 45 e8          	mov    -0x18(%rbp),%rax
  40182c:	c7 00 00 00 00 00    	movl   $0x0,(%rax)
  401832:	c7 45 dc 01 00 00 00 	movl   $0x1,-0x24(%rbp)
  401839:	eb 2e                	jmp    401869 <main+0x1fe>
  40183b:	8b 45 dc             	mov    -0x24(%rbp),%eax
  40183e:	48 98                	cltq   
  401840:	48 8d 14 85 00 00 00 	lea    0x0(,%rax,4),%rdx
  401847:	00 
  401848:	48 8b 45 e8          	mov    -0x18(%rbp),%rax
  40184c:	48 8d 1c 02          	lea    (%rdx,%rax,1),%rbx
  401850:	e8 6b f6 ff ff       	callq  400ec0 <random@plt>
  401855:	25 f0 00 00 00       	and    $0xf0,%eax
  40185a:	ba 80 00 00 00       	mov    $0x80,%edx
  40185f:	29 c2                	sub    %eax,%edx
  401861:	89 d0                	mov    %edx,%eax
  401863:	89 03                	mov    %eax,(%rbx)
  401865:	83 45 dc 01          	addl   $0x1,-0x24(%rbp)
  401869:	8b 45 dc             	mov    -0x24(%rbp),%eax
  40186c:	3b 45 e0             	cmp    -0x20(%rbp),%eax
  40186f:	7c ca                	jl     40183b <main+0x1d0>
  401871:	c7 45 dc 00 00 00 00 	movl   $0x0,-0x24(%rbp)
  401878:	eb 2b                	jmp    4018a5 <main+0x23a>
  40187a:	8b 45 dc             	mov    -0x24(%rbp),%eax
  40187d:	48 98                	cltq   
  40187f:	48 8d 14 85 00 00 00 	lea    0x0(,%rax,4),%rdx
  401886:	00 
  401887:	48 8b 45 e8          	mov    -0x18(%rbp),%rax
  40188b:	48 01 d0             	add    %rdx,%rax
  40188e:	8b 10                	mov    (%rax),%edx
  401890:	8b 45 e4             	mov    -0x1c(%rbp),%eax
  401893:	01 c2                	add    %eax,%edx
  401895:	8b 45 d8             	mov    -0x28(%rbp),%eax
  401898:	89 d6                	mov    %edx,%esi
  40189a:	89 c7                	mov    %eax,%edi
  40189c:	e8 dd fc ff ff       	callq  40157e <launcher>
  4018a1:	83 45 dc 01          	addl   $0x1,-0x24(%rbp)
  4018a5:	8b 45 dc             	mov    -0x24(%rbp),%eax
  4018a8:	3b 45 e0             	cmp    -0x20(%rbp),%eax
  4018ab:	7c cd                	jl     40187a <main+0x20f>
  4018ad:	b8 00 00 00 00       	mov    $0x0,%eax
  4018b2:	48 83 c4 38          	add    $0x38,%rsp
  4018b6:	5b                   	pop    %rbx
  4018b7:	5d                   	pop    %rbp
  4018b8:	c3                   	retq   

00000000004018b9 <getbuf>:
  4018b9:	55                   	push   %rbp
  4018ba:	48 89 e5             	mov    %rsp,%rbp
  4018bd:	48 83 ec 20          	sub    $0x20,%rsp
  4018c1:	48 8d 45 e0          	lea    -0x20(%rbp),%rax
  4018c5:	48 89 c7             	mov    %rax,%rdi
  4018c8:	e8 7c fa ff ff       	callq  401349 <Gets>
  4018cd:	b8 01 00 00 00       	mov    $0x1,%eax
  4018d2:	c9                   	leaveq 
  4018d3:	c3                   	retq   

00000000004018d4 <getbufn>:
  4018d4:	55                   	push   %rbp
  4018d5:	48 89 e5             	mov    %rsp,%rbp
  4018d8:	48 81 ec 00 02 00 00 	sub    $0x200,%rsp
  4018df:	48 8d 85 00 fe ff ff 	lea    -0x200(%rbp),%rax
  4018e6:	48 89 c7             	mov    %rax,%rdi
  4018e9:	e8 5b fa ff ff       	callq  401349 <Gets>
  4018ee:	b8 01 00 00 00       	mov    $0x1,%eax
  4018f3:	c9                   	leaveq 
  4018f4:	c3                   	retq   

00000000004018f5 <initialize_bomb>:
  4018f5:	55                   	push   %rbp
  4018f6:	48 89 e5             	mov    %rsp,%rbp
  4018f9:	48 81 ec 20 24 00 00 	sub    $0x2420,%rsp
  401900:	64 48 8b 04 25 28 00 	mov    %fs:0x28,%rax
  401907:	00 00 
  401909:	48 89 45 f8          	mov    %rax,-0x8(%rbp)
  40190d:	31 c0                	xor    %eax,%eax
  40190f:	c7 85 ec db ff ff 00 	movl   $0x0,-0x2414(%rbp)
  401916:	00 00 00 
  401919:	8b 05 bd 48 20 00    	mov    0x2048bd(%rip),%eax        # 6061dc <autograde>
  40191f:	85 c0                	test   %eax,%eax
  401921:	74 0a                	je     40192d <initialize_bomb+0x38>
  401923:	bf ff ff ff ff       	mov    $0xffffffff,%edi
  401928:	e8 fd 0d 00 00       	callq  40272a <init_timeout>
  40192d:	8b 05 a5 48 20 00    	mov    0x2048a5(%rip),%eax        # 6061d8 <notify>
  401933:	85 c0                	test   %eax,%eax
  401935:	0f 84 bc 00 00 00    	je     4019f7 <initialize_bomb+0x102>
  40193b:	48 8d 85 f0 db ff ff 	lea    -0x2410(%rbp),%rax
  401942:	be 00 04 00 00       	mov    $0x400,%esi
  401947:	48 89 c7             	mov    %rax,%rdi
  40194a:	e8 e1 f5 ff ff       	callq  400f30 <gethostname@plt>
  40194f:	85 c0                	test   %eax,%eax
  401951:	74 14                	je     401967 <initialize_bomb+0x72>
  401953:	bf 78 2f 40 00       	mov    $0x402f78,%edi
  401958:	e8 33 f4 ff ff       	callq  400d90 <puts@plt>
  40195d:	bf 08 00 00 00       	mov    $0x8,%edi
  401962:	e8 e9 f5 ff ff       	callq  400f50 <exit@plt>
  401967:	c7 85 e8 db ff ff 00 	movl   $0x0,-0x2418(%rbp)
  40196e:	00 00 00 
  401971:	eb 39                	jmp    4019ac <initialize_bomb+0xb7>
  401973:	8b 85 e8 db ff ff    	mov    -0x2418(%rbp),%eax
  401979:	48 98                	cltq   
  40197b:	48 8b 04 c5 80 41 60 	mov    0x604180(,%rax,8),%rax
  401982:	00 
  401983:	48 8d 95 f0 db ff ff 	lea    -0x2410(%rbp),%rdx
  40198a:	48 89 d6             	mov    %rdx,%rsi
  40198d:	48 89 c7             	mov    %rax,%rdi
  401990:	e8 bb f3 ff ff       	callq  400d50 <strcasecmp@plt>
  401995:	85 c0                	test   %eax,%eax
  401997:	75 0c                	jne    4019a5 <initialize_bomb+0xb0>
  401999:	c7 85 ec db ff ff 01 	movl   $0x1,-0x2414(%rbp)
  4019a0:	00 00 00 
  4019a3:	eb 1c                	jmp    4019c1 <initialize_bomb+0xcc>
  4019a5:	83 85 e8 db ff ff 01 	addl   $0x1,-0x2418(%rbp)
  4019ac:	8b 85 e8 db ff ff    	mov    -0x2418(%rbp),%eax
  4019b2:	48 98                	cltq   
  4019b4:	48 8b 04 c5 80 41 60 	mov    0x604180(,%rax,8),%rax
  4019bb:	00 
  4019bc:	48 85 c0             	test   %rax,%rax
  4019bf:	75 b2                	jne    401973 <initialize_bomb+0x7e>
  4019c1:	48 8d 85 f0 df ff ff 	lea    -0x2010(%rbp),%rax
  4019c8:	48 89 c7             	mov    %rax,%rdi
  4019cb:	e8 96 0d 00 00       	callq  402766 <init_driver>
  4019d0:	85 c0                	test   %eax,%eax
  4019d2:	79 23                	jns    4019f7 <initialize_bomb+0x102>
  4019d4:	48 8d 85 f0 df ff ff 	lea    -0x2010(%rbp),%rax
  4019db:	48 89 c6             	mov    %rax,%rsi
  4019de:	bf b0 2f 40 00       	mov    $0x402fb0,%edi
  4019e3:	b8 00 00 00 00       	mov    $0x0,%eax
  4019e8:	e8 13 f4 ff ff       	callq  400e00 <printf@plt>
  4019ed:	bf 08 00 00 00       	mov    $0x8,%edi
  4019f2:	e8 59 f5 ff ff       	callq  400f50 <exit@plt>
  4019f7:	90                   	nop
  4019f8:	48 8b 45 f8          	mov    -0x8(%rbp),%rax
  4019fc:	64 48 33 04 25 28 00 	xor    %fs:0x28,%rax
  401a03:	00 00 
  401a05:	74 05                	je     401a0c <initialize_bomb+0x117>
  401a07:	e8 c4 f3 ff ff       	callq  400dd0 <__stack_chk_fail@plt>
  401a0c:	c9                   	leaveq 
  401a0d:	c3                   	retq   

0000000000401a0e <validate>:
  401a0e:	55                   	push   %rbp
  401a0f:	48 89 e5             	mov    %rsp,%rbp
  401a12:	48 81 ec 30 40 00 00 	sub    $0x4030,%rsp
  401a19:	89 bd dc bf ff ff    	mov    %edi,-0x4024(%rbp)
  401a1f:	64 48 8b 04 25 28 00 	mov    %fs:0x28,%rax
  401a26:	00 00 
  401a28:	48 89 45 f8          	mov    %rax,-0x8(%rbp)
  401a2c:	31 c0                	xor    %eax,%eax
  401a2e:	48 8b 05 9b 47 20 00 	mov    0x20479b(%rip),%rax        # 6061d0 <userid>
  401a35:	48 85 c0             	test   %rax,%rax
  401a38:	75 0f                	jne    401a49 <validate+0x3b>
  401a3a:	bf c8 2f 40 00       	mov    $0x402fc8,%edi
  401a3f:	e8 4c f3 ff ff       	callq  400d90 <puts@plt>
  401a44:	e9 39 01 00 00       	jmpq   401b82 <validate+0x174>
  401a49:	83 bd dc bf ff ff 00 	cmpl   $0x0,-0x4024(%rbp)
  401a50:	78 09                	js     401a5b <validate+0x4d>
  401a52:	83 bd dc bf ff ff 04 	cmpl   $0x4,-0x4024(%rbp)
  401a59:	7e 0f                	jle    401a6a <validate+0x5c>
  401a5b:	bf f8 2f 40 00       	mov    $0x402ff8,%edi
  401a60:	e8 2b f3 ff ff       	callq  400d90 <puts@plt>
  401a65:	e9 18 01 00 00       	jmpq   401b82 <validate+0x174>
  401a6a:	c7 05 78 47 20 00 01 	movl   $0x1,0x204778(%rip)        # 6061ec <success>
  401a71:	00 00 00 
  401a74:	8b 85 dc bf ff ff    	mov    -0x4024(%rbp),%eax
  401a7a:	48 98                	cltq   
  401a7c:	8b 04 85 80 61 60 00 	mov    0x606180(,%rax,4),%eax
  401a83:	8d 50 ff             	lea    -0x1(%rax),%edx
  401a86:	8b 85 dc bf ff ff    	mov    -0x4024(%rbp),%eax
  401a8c:	48 98                	cltq   
  401a8e:	89 14 85 80 61 60 00 	mov    %edx,0x606180(,%rax,4)
  401a95:	8b 85 dc bf ff ff    	mov    -0x4024(%rbp),%eax
  401a9b:	48 98                	cltq   
  401a9d:	8b 04 85 80 61 60 00 	mov    0x606180(,%rax,4),%eax
  401aa4:	85 c0                	test   %eax,%eax
  401aa6:	7e 0f                	jle    401ab7 <validate+0xa9>
  401aa8:	bf 1e 30 40 00       	mov    $0x40301e,%edi
  401aad:	e8 de f2 ff ff       	callq  400d90 <puts@plt>
  401ab2:	e9 cb 00 00 00       	jmpq   401b82 <validate+0x174>
  401ab7:	bf 29 30 40 00       	mov    $0x403029,%edi
  401abc:	e8 cf f2 ff ff       	callq  400d90 <puts@plt>
  401ac1:	8b 05 11 47 20 00    	mov    0x204711(%rip),%eax        # 6061d8 <notify>
  401ac7:	85 c0                	test   %eax,%eax
  401ac9:	0f 84 a9 00 00 00    	je     401b78 <validate+0x16a>
  401acf:	bf 40 62 60 00       	mov    $0x606240,%edi
  401ad4:	e8 e7 f2 ff ff       	callq  400dc0 <strlen@plt>
  401ad9:	48 83 c0 20          	add    $0x20,%rax
  401add:	48 3d 00 20 00 00    	cmp    $0x2000,%rax
  401ae3:	76 0f                	jbe    401af4 <validate+0xe6>
  401ae5:	bf 30 30 40 00       	mov    $0x403030,%edi
  401aea:	e8 a1 f2 ff ff       	callq  400d90 <puts@plt>
  401aef:	e9 8e 00 00 00       	jmpq   401b82 <validate+0x174>
  401af4:	8b 0d ee 46 20 00    	mov    0x2046ee(%rip),%ecx        # 6061e8 <cookie>
  401afa:	8b 95 dc bf ff ff    	mov    -0x4024(%rbp),%edx
  401b00:	48 8d 85 f0 bf ff ff 	lea    -0x4010(%rbp),%rax
  401b07:	41 b8 40 62 60 00    	mov    $0x606240,%r8d
  401b0d:	be 67 30 40 00       	mov    $0x403067,%esi
  401b12:	48 89 c7             	mov    %rax,%rdi
  401b15:	b8 00 00 00 00       	mov    $0x0,%eax
  401b1a:	e8 21 f4 ff ff       	callq  400f40 <sprintf@plt>
  401b1f:	48 8b 05 aa 46 20 00 	mov    0x2046aa(%rip),%rax        # 6061d0 <userid>
  401b26:	48 8d 95 f0 df ff ff 	lea    -0x2010(%rbp),%rdx
  401b2d:	48 8d b5 f0 bf ff ff 	lea    -0x4010(%rbp),%rsi
  401b34:	48 89 d1             	mov    %rdx,%rcx
  401b37:	ba 00 00 00 00       	mov    $0x0,%edx
  401b3c:	48 89 c7             	mov    %rax,%rdi
  401b3f:	e8 f7 0d 00 00       	callq  40293b <driver_post>
  401b44:	89 85 ec bf ff ff    	mov    %eax,-0x4014(%rbp)
  401b4a:	83 bd ec bf ff ff 00 	cmpl   $0x0,-0x4014(%rbp)
  401b51:	75 0c                	jne    401b5f <validate+0x151>
  401b53:	bf 70 30 40 00       	mov    $0x403070,%edi
  401b58:	e8 33 f2 ff ff       	callq  400d90 <puts@plt>
  401b5d:	eb 19                	jmp    401b78 <validate+0x16a>
  401b5f:	48 8d 85 f0 df ff ff 	lea    -0x2010(%rbp),%rax
  401b66:	48 89 c6             	mov    %rax,%rsi
  401b69:	bf a0 30 40 00       	mov    $0x4030a0,%edi
  401b6e:	b8 00 00 00 00       	mov    $0x0,%eax
  401b73:	e8 88 f2 ff ff       	callq  400e00 <printf@plt>
  401b78:	bf de 30 40 00       	mov    $0x4030de,%edi
  401b7d:	e8 0e f2 ff ff       	callq  400d90 <puts@plt>
  401b82:	48 8b 45 f8          	mov    -0x8(%rbp),%rax
  401b86:	64 48 33 04 25 28 00 	xor    %fs:0x28,%rax
  401b8d:	00 00 
  401b8f:	74 05                	je     401b96 <validate+0x188>
  401b91:	e8 3a f2 ff ff       	callq  400dd0 <__stack_chk_fail@plt>
  401b96:	c9                   	leaveq 
  401b97:	c3                   	retq   

0000000000401b98 <sigalrm_handler>:
  401b98:	55                   	push   %rbp
  401b99:	48 89 e5             	mov    %rsp,%rbp
  401b9c:	48 83 ec 10          	sub    $0x10,%rsp
  401ba0:	89 7d fc             	mov    %edi,-0x4(%rbp)
  401ba3:	be 02 00 00 00       	mov    $0x2,%esi
  401ba8:	bf e8 30 40 00       	mov    $0x4030e8,%edi
  401bad:	b8 00 00 00 00       	mov    $0x0,%eax
  401bb2:	e8 49 f2 ff ff       	callq  400e00 <printf@plt>
  401bb7:	bf 01 00 00 00       	mov    $0x1,%edi
  401bbc:	e8 8f f3 ff ff       	callq  400f50 <exit@plt>

0000000000401bc1 <rio_readinitb>:
  401bc1:	55                   	push   %rbp
  401bc2:	48 89 e5             	mov    %rsp,%rbp
  401bc5:	48 89 7d f8          	mov    %rdi,-0x8(%rbp)
  401bc9:	89 75 f4             	mov    %esi,-0xc(%rbp)
  401bcc:	48 8b 45 f8          	mov    -0x8(%rbp),%rax
  401bd0:	8b 55 f4             	mov    -0xc(%rbp),%edx
  401bd3:	89 10                	mov    %edx,(%rax)
  401bd5:	48 8b 45 f8          	mov    -0x8(%rbp),%rax
  401bd9:	c7 40 04 00 00 00 00 	movl   $0x0,0x4(%rax)
  401be0:	48 8b 45 f8          	mov    -0x8(%rbp),%rax
  401be4:	48 8d 50 10          	lea    0x10(%rax),%rdx
  401be8:	48 8b 45 f8          	mov    -0x8(%rbp),%rax
  401bec:	48 89 50 08          	mov    %rdx,0x8(%rax)
  401bf0:	90                   	nop
  401bf1:	5d                   	pop    %rbp
  401bf2:	c3                   	retq   

0000000000401bf3 <rio_read>:
  401bf3:	55                   	push   %rbp
  401bf4:	48 89 e5             	mov    %rsp,%rbp
  401bf7:	48 83 ec 30          	sub    $0x30,%rsp
  401bfb:	48 89 7d e8          	mov    %rdi,-0x18(%rbp)
  401bff:	48 89 75 e0          	mov    %rsi,-0x20(%rbp)
  401c03:	48 89 55 d8          	mov    %rdx,-0x28(%rbp)
  401c07:	eb 6e                	jmp    401c77 <rio_read+0x84>
  401c09:	48 8b 45 e8          	mov    -0x18(%rbp),%rax
  401c0d:	48 8d 48 10          	lea    0x10(%rax),%rcx
  401c11:	48 8b 45 e8          	mov    -0x18(%rbp),%rax
  401c15:	8b 00                	mov    (%rax),%eax
  401c17:	ba 00 20 00 00       	mov    $0x2000,%edx
  401c1c:	48 89 ce             	mov    %rcx,%rsi
  401c1f:	89 c7                	mov    %eax,%edi
  401c21:	e8 1a f2 ff ff       	callq  400e40 <read@plt>
  401c26:	89 c2                	mov    %eax,%edx
  401c28:	48 8b 45 e8          	mov    -0x18(%rbp),%rax
  401c2c:	89 50 04             	mov    %edx,0x4(%rax)
  401c2f:	48 8b 45 e8          	mov    -0x18(%rbp),%rax
  401c33:	8b 40 04             	mov    0x4(%rax),%eax
  401c36:	85 c0                	test   %eax,%eax
  401c38:	79 18                	jns    401c52 <rio_read+0x5f>
  401c3a:	e8 21 f1 ff ff       	callq  400d60 <__errno_location@plt>
  401c3f:	8b 00                	mov    (%rax),%eax
  401c41:	83 f8 04             	cmp    $0x4,%eax
  401c44:	74 31                	je     401c77 <rio_read+0x84>
  401c46:	48 c7 c0 ff ff ff ff 	mov    $0xffffffffffffffff,%rax
  401c4d:	e9 9d 00 00 00       	jmpq   401cef <rio_read+0xfc>
  401c52:	48 8b 45 e8          	mov    -0x18(%rbp),%rax
  401c56:	8b 40 04             	mov    0x4(%rax),%eax
  401c59:	85 c0                	test   %eax,%eax
  401c5b:	75 0a                	jne    401c67 <rio_read+0x74>
  401c5d:	b8 00 00 00 00       	mov    $0x0,%eax
  401c62:	e9 88 00 00 00       	jmpq   401cef <rio_read+0xfc>
  401c67:	48 8b 45 e8          	mov    -0x18(%rbp),%rax
  401c6b:	48 8d 50 10          	lea    0x10(%rax),%rdx
  401c6f:	48 8b 45 e8          	mov    -0x18(%rbp),%rax
  401c73:	48 89 50 08          	mov    %rdx,0x8(%rax)
  401c77:	48 8b 45 e8          	mov    -0x18(%rbp),%rax
  401c7b:	8b 40 04             	mov    0x4(%rax),%eax
  401c7e:	85 c0                	test   %eax,%eax
  401c80:	7e 87                	jle    401c09 <rio_read+0x16>
  401c82:	48 8b 45 d8          	mov    -0x28(%rbp),%rax
  401c86:	89 45 fc             	mov    %eax,-0x4(%rbp)
  401c89:	48 8b 45 e8          	mov    -0x18(%rbp),%rax
  401c8d:	8b 40 04             	mov    0x4(%rax),%eax
  401c90:	48 98                	cltq   
  401c92:	48 3b 45 d8          	cmp    -0x28(%rbp),%rax
  401c96:	73 0a                	jae    401ca2 <rio_read+0xaf>
  401c98:	48 8b 45 e8          	mov    -0x18(%rbp),%rax
  401c9c:	8b 40 04             	mov    0x4(%rax),%eax
  401c9f:	89 45 fc             	mov    %eax,-0x4(%rbp)
  401ca2:	8b 45 fc             	mov    -0x4(%rbp),%eax
  401ca5:	48 63 d0             	movslq %eax,%rdx
  401ca8:	48 8b 45 e8          	mov    -0x18(%rbp),%rax
  401cac:	48 8b 48 08          	mov    0x8(%rax),%rcx
  401cb0:	48 8b 45 e0          	mov    -0x20(%rbp),%rax
  401cb4:	48 89 ce             	mov    %rcx,%rsi
  401cb7:	48 89 c7             	mov    %rax,%rdi
  401cba:	e8 f1 f1 ff ff       	callq  400eb0 <memcpy@plt>
  401cbf:	48 8b 45 e8          	mov    -0x18(%rbp),%rax
  401cc3:	48 8b 50 08          	mov    0x8(%rax),%rdx
  401cc7:	8b 45 fc             	mov    -0x4(%rbp),%eax
  401cca:	48 98                	cltq   
  401ccc:	48 01 c2             	add    %rax,%rdx
  401ccf:	48 8b 45 e8          	mov    -0x18(%rbp),%rax
  401cd3:	48 89 50 08          	mov    %rdx,0x8(%rax)
  401cd7:	48 8b 45 e8          	mov    -0x18(%rbp),%rax
  401cdb:	8b 40 04             	mov    0x4(%rax),%eax
  401cde:	2b 45 fc             	sub    -0x4(%rbp),%eax
  401ce1:	89 c2                	mov    %eax,%edx
  401ce3:	48 8b 45 e8          	mov    -0x18(%rbp),%rax
  401ce7:	89 50 04             	mov    %edx,0x4(%rax)
  401cea:	8b 45 fc             	mov    -0x4(%rbp),%eax
  401ced:	48 98                	cltq   
  401cef:	c9                   	leaveq 
  401cf0:	c3                   	retq   

0000000000401cf1 <rio_readlineb>:
  401cf1:	55                   	push   %rbp
  401cf2:	48 89 e5             	mov    %rsp,%rbp
  401cf5:	48 83 ec 40          	sub    $0x40,%rsp
  401cf9:	48 89 7d d8          	mov    %rdi,-0x28(%rbp)
  401cfd:	48 89 75 d0          	mov    %rsi,-0x30(%rbp)
  401d01:	48 89 55 c8          	mov    %rdx,-0x38(%rbp)
  401d05:	64 48 8b 04 25 28 00 	mov    %fs:0x28,%rax
  401d0c:	00 00 
  401d0e:	48 89 45 f8          	mov    %rax,-0x8(%rbp)
  401d12:	31 c0                	xor    %eax,%eax
  401d14:	48 8b 45 d0          	mov    -0x30(%rbp),%rax
  401d18:	48 89 45 f0          	mov    %rax,-0x10(%rbp)
  401d1c:	c7 45 e8 01 00 00 00 	movl   $0x1,-0x18(%rbp)
  401d23:	eb 5d                	jmp    401d82 <rio_readlineb+0x91>
  401d25:	48 8d 4d e7          	lea    -0x19(%rbp),%rcx
  401d29:	48 8b 45 d8          	mov    -0x28(%rbp),%rax
  401d2d:	ba 01 00 00 00       	mov    $0x1,%edx
  401d32:	48 89 ce             	mov    %rcx,%rsi
  401d35:	48 89 c7             	mov    %rax,%rdi
  401d38:	e8 b6 fe ff ff       	callq  401bf3 <rio_read>
  401d3d:	89 45 ec             	mov    %eax,-0x14(%rbp)
  401d40:	83 7d ec 01          	cmpl   $0x1,-0x14(%rbp)
  401d44:	75 1c                	jne    401d62 <rio_readlineb+0x71>
  401d46:	48 8b 45 f0          	mov    -0x10(%rbp),%rax
  401d4a:	48 8d 50 01          	lea    0x1(%rax),%rdx
  401d4e:	48 89 55 f0          	mov    %rdx,-0x10(%rbp)
  401d52:	0f b6 55 e7          	movzbl -0x19(%rbp),%edx
  401d56:	88 10                	mov    %dl,(%rax)
  401d58:	0f b6 45 e7          	movzbl -0x19(%rbp),%eax
  401d5c:	3c 0a                	cmp    $0xa,%al
  401d5e:	75 1e                	jne    401d7e <rio_readlineb+0x8d>
  401d60:	eb 2e                	jmp    401d90 <rio_readlineb+0x9f>
  401d62:	83 7d ec 00          	cmpl   $0x0,-0x14(%rbp)
  401d66:	75 0d                	jne    401d75 <rio_readlineb+0x84>
  401d68:	83 7d e8 01          	cmpl   $0x1,-0x18(%rbp)
  401d6c:	75 21                	jne    401d8f <rio_readlineb+0x9e>
  401d6e:	b8 00 00 00 00       	mov    $0x0,%eax
  401d73:	eb 27                	jmp    401d9c <rio_readlineb+0xab>
  401d75:	48 c7 c0 ff ff ff ff 	mov    $0xffffffffffffffff,%rax
  401d7c:	eb 1e                	jmp    401d9c <rio_readlineb+0xab>
  401d7e:	83 45 e8 01          	addl   $0x1,-0x18(%rbp)
  401d82:	8b 45 e8             	mov    -0x18(%rbp),%eax
  401d85:	48 98                	cltq   
  401d87:	48 3b 45 c8          	cmp    -0x38(%rbp),%rax
  401d8b:	72 98                	jb     401d25 <rio_readlineb+0x34>
  401d8d:	eb 01                	jmp    401d90 <rio_readlineb+0x9f>
  401d8f:	90                   	nop
  401d90:	48 8b 45 f0          	mov    -0x10(%rbp),%rax
  401d94:	c6 00 00             	movb   $0x0,(%rax)
  401d97:	8b 45 e8             	mov    -0x18(%rbp),%eax
  401d9a:	48 98                	cltq   
  401d9c:	48 8b 4d f8          	mov    -0x8(%rbp),%rcx
  401da0:	64 48 33 0c 25 28 00 	xor    %fs:0x28,%rcx
  401da7:	00 00 
  401da9:	74 05                	je     401db0 <rio_readlineb+0xbf>
  401dab:	e8 20 f0 ff ff       	callq  400dd0 <__stack_chk_fail@plt>
  401db0:	c9                   	leaveq 
  401db1:	c3                   	retq   

0000000000401db2 <rio_writen>:
  401db2:	55                   	push   %rbp
  401db3:	48 89 e5             	mov    %rsp,%rbp
  401db6:	48 83 ec 40          	sub    $0x40,%rsp
  401dba:	89 7d dc             	mov    %edi,-0x24(%rbp)
  401dbd:	48 89 75 d0          	mov    %rsi,-0x30(%rbp)
  401dc1:	48 89 55 c8          	mov    %rdx,-0x38(%rbp)
  401dc5:	48 8b 45 c8          	mov    -0x38(%rbp),%rax
  401dc9:	48 89 45 e8          	mov    %rax,-0x18(%rbp)
  401dcd:	48 8b 45 d0          	mov    -0x30(%rbp),%rax
  401dd1:	48 89 45 f8          	mov    %rax,-0x8(%rbp)
  401dd5:	eb 4f                	jmp    401e26 <rio_writen+0x74>
  401dd7:	48 8b 55 e8          	mov    -0x18(%rbp),%rdx
  401ddb:	48 8b 4d f8          	mov    -0x8(%rbp),%rcx
  401ddf:	8b 45 dc             	mov    -0x24(%rbp),%eax
  401de2:	48 89 ce             	mov    %rcx,%rsi
  401de5:	89 c7                	mov    %eax,%edi
  401de7:	e8 b4 ef ff ff       	callq  400da0 <write@plt>
  401dec:	48 89 45 f0          	mov    %rax,-0x10(%rbp)
  401df0:	48 83 7d f0 00       	cmpq   $0x0,-0x10(%rbp)
  401df5:	7f 1f                	jg     401e16 <rio_writen+0x64>
  401df7:	e8 64 ef ff ff       	callq  400d60 <__errno_location@plt>
  401dfc:	8b 00                	mov    (%rax),%eax
  401dfe:	83 f8 04             	cmp    $0x4,%eax
  401e01:	75 0a                	jne    401e0d <rio_writen+0x5b>
  401e03:	48 c7 45 f0 00 00 00 	movq   $0x0,-0x10(%rbp)
  401e0a:	00 
  401e0b:	eb 09                	jmp    401e16 <rio_writen+0x64>
  401e0d:	48 c7 c0 ff ff ff ff 	mov    $0xffffffffffffffff,%rax
  401e14:	eb 1b                	jmp    401e31 <rio_writen+0x7f>
  401e16:	48 8b 45 f0          	mov    -0x10(%rbp),%rax
  401e1a:	48 29 45 e8          	sub    %rax,-0x18(%rbp)
  401e1e:	48 8b 45 f0          	mov    -0x10(%rbp),%rax
  401e22:	48 01 45 f8          	add    %rax,-0x8(%rbp)
  401e26:	48 83 7d e8 00       	cmpq   $0x0,-0x18(%rbp)
  401e2b:	75 aa                	jne    401dd7 <rio_writen+0x25>
  401e2d:	48 8b 45 c8          	mov    -0x38(%rbp),%rax
  401e31:	c9                   	leaveq 
  401e32:	c3                   	retq   

0000000000401e33 <urlencode>:
  401e33:	55                   	push   %rbp
  401e34:	48 89 e5             	mov    %rsp,%rbp
  401e37:	48 83 ec 30          	sub    $0x30,%rsp
  401e3b:	48 89 7d d8          	mov    %rdi,-0x28(%rbp)
  401e3f:	48 89 75 d0          	mov    %rsi,-0x30(%rbp)
  401e43:	64 48 8b 04 25 28 00 	mov    %fs:0x28,%rax
  401e4a:	00 00 
  401e4c:	48 89 45 f8          	mov    %rax,-0x8(%rbp)
  401e50:	31 c0                	xor    %eax,%eax
  401e52:	48 8b 45 d8          	mov    -0x28(%rbp),%rax
  401e56:	48 89 c7             	mov    %rax,%rdi
  401e59:	e8 62 ef ff ff       	callq  400dc0 <strlen@plt>
  401e5e:	89 45 ec             	mov    %eax,-0x14(%rbp)
  401e61:	e9 2c 01 00 00       	jmpq   401f92 <urlencode+0x15f>
  401e66:	48 8b 45 d8          	mov    -0x28(%rbp),%rax
  401e6a:	0f b6 00             	movzbl (%rax),%eax
  401e6d:	3c 2a                	cmp    $0x2a,%al
  401e6f:	74 63                	je     401ed4 <urlencode+0xa1>
  401e71:	48 8b 45 d8          	mov    -0x28(%rbp),%rax
  401e75:	0f b6 00             	movzbl (%rax),%eax
  401e78:	3c 2d                	cmp    $0x2d,%al
  401e7a:	74 58                	je     401ed4 <urlencode+0xa1>
  401e7c:	48 8b 45 d8          	mov    -0x28(%rbp),%rax
  401e80:	0f b6 00             	movzbl (%rax),%eax
  401e83:	3c 2e                	cmp    $0x2e,%al
  401e85:	74 4d                	je     401ed4 <urlencode+0xa1>
  401e87:	48 8b 45 d8          	mov    -0x28(%rbp),%rax
  401e8b:	0f b6 00             	movzbl (%rax),%eax
  401e8e:	3c 5f                	cmp    $0x5f,%al
  401e90:	74 42                	je     401ed4 <urlencode+0xa1>
  401e92:	48 8b 45 d8          	mov    -0x28(%rbp),%rax
  401e96:	0f b6 00             	movzbl (%rax),%eax
  401e99:	3c 2f                	cmp    $0x2f,%al
  401e9b:	76 0b                	jbe    401ea8 <urlencode+0x75>
  401e9d:	48 8b 45 d8          	mov    -0x28(%rbp),%rax
  401ea1:	0f b6 00             	movzbl (%rax),%eax
  401ea4:	3c 39                	cmp    $0x39,%al
  401ea6:	76 2c                	jbe    401ed4 <urlencode+0xa1>
  401ea8:	48 8b 45 d8          	mov    -0x28(%rbp),%rax
  401eac:	0f b6 00             	movzbl (%rax),%eax
  401eaf:	3c 40                	cmp    $0x40,%al
  401eb1:	76 0b                	jbe    401ebe <urlencode+0x8b>
  401eb3:	48 8b 45 d8          	mov    -0x28(%rbp),%rax
  401eb7:	0f b6 00             	movzbl (%rax),%eax
  401eba:	3c 5a                	cmp    $0x5a,%al
  401ebc:	76 16                	jbe    401ed4 <urlencode+0xa1>
  401ebe:	48 8b 45 d8          	mov    -0x28(%rbp),%rax
  401ec2:	0f b6 00             	movzbl (%rax),%eax
  401ec5:	3c 60                	cmp    $0x60,%al
  401ec7:	76 25                	jbe    401eee <urlencode+0xbb>
  401ec9:	48 8b 45 d8          	mov    -0x28(%rbp),%rax
  401ecd:	0f b6 00             	movzbl (%rax),%eax
  401ed0:	3c 7a                	cmp    $0x7a,%al
  401ed2:	77 1a                	ja     401eee <urlencode+0xbb>
  401ed4:	48 8b 45 d0          	mov    -0x30(%rbp),%rax
  401ed8:	48 8d 50 01          	lea    0x1(%rax),%rdx
  401edc:	48 89 55 d0          	mov    %rdx,-0x30(%rbp)
  401ee0:	48 8b 55 d8          	mov    -0x28(%rbp),%rdx
  401ee4:	0f b6 12             	movzbl (%rdx),%edx
  401ee7:	88 10                	mov    %dl,(%rax)
  401ee9:	e9 9f 00 00 00       	jmpq   401f8d <urlencode+0x15a>
  401eee:	48 8b 45 d8          	mov    -0x28(%rbp),%rax
  401ef2:	0f b6 00             	movzbl (%rax),%eax
  401ef5:	3c 20                	cmp    $0x20,%al
  401ef7:	75 14                	jne    401f0d <urlencode+0xda>
  401ef9:	48 8b 45 d0          	mov    -0x30(%rbp),%rax
  401efd:	48 8d 50 01          	lea    0x1(%rax),%rdx
  401f01:	48 89 55 d0          	mov    %rdx,-0x30(%rbp)
  401f05:	c6 00 2b             	movb   $0x2b,(%rax)
  401f08:	e9 80 00 00 00       	jmpq   401f8d <urlencode+0x15a>
  401f0d:	48 8b 45 d8          	mov    -0x28(%rbp),%rax
  401f11:	0f b6 00             	movzbl (%rax),%eax
  401f14:	3c 1f                	cmp    $0x1f,%al
  401f16:	76 0b                	jbe    401f23 <urlencode+0xf0>
  401f18:	48 8b 45 d8          	mov    -0x28(%rbp),%rax
  401f1c:	0f b6 00             	movzbl (%rax),%eax
  401f1f:	84 c0                	test   %al,%al
  401f21:	79 0b                	jns    401f2e <urlencode+0xfb>
  401f23:	48 8b 45 d8          	mov    -0x28(%rbp),%rax
  401f27:	0f b6 00             	movzbl (%rax),%eax
  401f2a:	3c 09                	cmp    $0x9,%al
  401f2c:	75 58                	jne    401f86 <urlencode+0x153>
  401f2e:	48 8b 45 d8          	mov    -0x28(%rbp),%rax
  401f32:	0f b6 00             	movzbl (%rax),%eax
  401f35:	0f b6 d0             	movzbl %al,%edx
  401f38:	48 8d 45 f0          	lea    -0x10(%rbp),%rax
  401f3c:	be 0c 31 40 00       	mov    $0x40310c,%esi
  401f41:	48 89 c7             	mov    %rax,%rdi
  401f44:	b8 00 00 00 00       	mov    $0x0,%eax
  401f49:	e8 f2 ef ff ff       	callq  400f40 <sprintf@plt>
  401f4e:	48 8b 45 d0          	mov    -0x30(%rbp),%rax
  401f52:	48 8d 50 01          	lea    0x1(%rax),%rdx
  401f56:	48 89 55 d0          	mov    %rdx,-0x30(%rbp)
  401f5a:	0f b6 55 f0          	movzbl -0x10(%rbp),%edx
  401f5e:	88 10                	mov    %dl,(%rax)
  401f60:	48 8b 45 d0          	mov    -0x30(%rbp),%rax
  401f64:	48 8d 50 01          	lea    0x1(%rax),%rdx
  401f68:	48 89 55 d0          	mov    %rdx,-0x30(%rbp)
  401f6c:	0f b6 55 f1          	movzbl -0xf(%rbp),%edx
  401f70:	88 10                	mov    %dl,(%rax)
  401f72:	48 8b 45 d0          	mov    -0x30(%rbp),%rax
  401f76:	48 8d 50 01          	lea    0x1(%rax),%rdx
  401f7a:	48 89 55 d0          	mov    %rdx,-0x30(%rbp)
  401f7e:	0f b6 55 f2          	movzbl -0xe(%rbp),%edx
  401f82:	88 10                	mov    %dl,(%rax)
  401f84:	eb 07                	jmp    401f8d <urlencode+0x15a>
  401f86:	b8 ff ff ff ff       	mov    $0xffffffff,%eax
  401f8b:	eb 1b                	jmp    401fa8 <urlencode+0x175>
  401f8d:	48 83 45 d8 01       	addq   $0x1,-0x28(%rbp)
  401f92:	8b 45 ec             	mov    -0x14(%rbp),%eax
  401f95:	8d 50 ff             	lea    -0x1(%rax),%edx
  401f98:	89 55 ec             	mov    %edx,-0x14(%rbp)
  401f9b:	85 c0                	test   %eax,%eax
  401f9d:	0f 85 c3 fe ff ff    	jne    401e66 <urlencode+0x33>
  401fa3:	b8 00 00 00 00       	mov    $0x0,%eax
  401fa8:	48 8b 4d f8          	mov    -0x8(%rbp),%rcx
  401fac:	64 48 33 0c 25 28 00 	xor    %fs:0x28,%rcx
  401fb3:	00 00 
  401fb5:	74 05                	je     401fbc <urlencode+0x189>
  401fb7:	e8 14 ee ff ff       	callq  400dd0 <__stack_chk_fail@plt>
  401fbc:	c9                   	leaveq 
  401fbd:	c3                   	retq   

0000000000401fbe <submitr>:
  401fbe:	55                   	push   %rbp
  401fbf:	48 89 e5             	mov    %rsp,%rbp
  401fc2:	53                   	push   %rbx
  401fc3:	48 81 ec 98 a0 00 00 	sub    $0xa098,%rsp
  401fca:	48 89 bd 98 5f ff ff 	mov    %rdi,-0xa068(%rbp)
  401fd1:	89 b5 94 5f ff ff    	mov    %esi,-0xa06c(%rbp)
  401fd7:	48 89 95 88 5f ff ff 	mov    %rdx,-0xa078(%rbp)
  401fde:	48 89 8d 80 5f ff ff 	mov    %rcx,-0xa080(%rbp)
  401fe5:	4c 89 85 78 5f ff ff 	mov    %r8,-0xa088(%rbp)
  401fec:	4c 89 8d 70 5f ff ff 	mov    %r9,-0xa090(%rbp)
  401ff3:	48 8b 45 10          	mov    0x10(%rbp),%rax
  401ff7:	48 89 85 68 5f ff ff 	mov    %rax,-0xa098(%rbp)
  401ffe:	64 48 8b 04 25 28 00 	mov    %fs:0x28,%rax
  402005:	00 00 
  402007:	48 89 45 e8          	mov    %rax,-0x18(%rbp)
  40200b:	31 c0                	xor    %eax,%eax
  40200d:	c7 85 a0 5f ff ff 00 	movl   $0x0,-0xa060(%rbp)
  402014:	00 00 00 
  402017:	ba 00 00 00 00       	mov    $0x0,%edx
  40201c:	be 01 00 00 00       	mov    $0x1,%esi
  402021:	bf 02 00 00 00       	mov    $0x2,%edi
  402026:	e8 75 ef ff ff       	callq  400fa0 <socket@plt>
  40202b:	89 85 a4 5f ff ff    	mov    %eax,-0xa05c(%rbp)
  402031:	83 bd a4 5f ff ff 00 	cmpl   $0x0,-0xa05c(%rbp)
  402038:	79 55                	jns    40208f <submitr+0xd1>
  40203a:	48 8b 85 68 5f ff ff 	mov    -0xa098(%rbp),%rax
  402041:	48 bb 45 72 72 6f 72 	movabs $0x43203a726f727245,%rbx
  402048:	3a 20 43 
  40204b:	48 89 18             	mov    %rbx,(%rax)
  40204e:	48 bb 6c 69 65 6e 74 	movabs $0x6e7520746e65696c,%rbx
  402055:	20 75 6e 
  402058:	48 89 58 08          	mov    %rbx,0x8(%rax)
  40205c:	48 bb 61 62 6c 65 20 	movabs $0x206f7420656c6261,%rbx
  402063:	74 6f 20 
  402066:	48 89 58 10          	mov    %rbx,0x10(%rax)
  40206a:	48 bb 63 72 65 61 74 	movabs $0x7320657461657263,%rbx
  402071:	65 20 73 
  402074:	48 89 58 18          	mov    %rbx,0x18(%rax)
  402078:	c7 40 20 6f 63 6b 65 	movl   $0x656b636f,0x20(%rax)
  40207f:	66 c7 40 24 74 00    	movw   $0x74,0x24(%rax)
  402085:	b8 ff ff ff ff       	mov    $0xffffffff,%eax
  40208a:	e9 7d 06 00 00       	jmpq   40270c <submitr+0x74e>
  40208f:	48 8b 85 98 5f ff ff 	mov    -0xa068(%rbp),%rax
  402096:	48 89 c7             	mov    %rax,%rdi
  402099:	e8 02 ee ff ff       	callq  400ea0 <gethostbyname@plt>
  40209e:	48 89 85 a8 5f ff ff 	mov    %rax,-0xa058(%rbp)
  4020a5:	48 83 bd a8 5f ff ff 	cmpq   $0x0,-0xa058(%rbp)
  4020ac:	00 
  4020ad:	75 37                	jne    4020e6 <submitr+0x128>
  4020af:	48 8b 95 98 5f ff ff 	mov    -0xa068(%rbp),%rdx
  4020b6:	48 8b 85 68 5f ff ff 	mov    -0xa098(%rbp),%rax
  4020bd:	be 18 31 40 00       	mov    $0x403118,%esi
  4020c2:	48 89 c7             	mov    %rax,%rdi
  4020c5:	b8 00 00 00 00       	mov    $0x0,%eax
  4020ca:	e8 71 ee ff ff       	callq  400f40 <sprintf@plt>
  4020cf:	8b 85 a4 5f ff ff    	mov    -0xa05c(%rbp),%eax
  4020d5:	89 c7                	mov    %eax,%edi
  4020d7:	e8 54 ed ff ff       	callq  400e30 <close@plt>
  4020dc:	b8 ff ff ff ff       	mov    $0xffffffff,%eax
  4020e1:	e9 26 06 00 00       	jmpq   40270c <submitr+0x74e>
  4020e6:	48 8d 85 c0 5f ff ff 	lea    -0xa040(%rbp),%rax
  4020ed:	be 10 00 00 00       	mov    $0x10,%esi
  4020f2:	48 89 c7             	mov    %rax,%rdi
  4020f5:	e8 16 ee ff ff       	callq  400f10 <bzero@plt>
  4020fa:	66 c7 85 c0 5f ff ff 	movw   $0x2,-0xa040(%rbp)
  402101:	02 00 
  402103:	48 8b 85 a8 5f ff ff 	mov    -0xa058(%rbp),%rax
  40210a:	8b 40 14             	mov    0x14(%rax),%eax
  40210d:	48 63 d0             	movslq %eax,%rdx
  402110:	48 8b 85 a8 5f ff ff 	mov    -0xa058(%rbp),%rax
  402117:	48 8b 40 18          	mov    0x18(%rax),%rax
  40211b:	48 8b 00             	mov    (%rax),%rax
  40211e:	48 8d 8d c0 5f ff ff 	lea    -0xa040(%rbp),%rcx
  402125:	48 83 c1 04          	add    $0x4,%rcx
  402129:	48 89 ce             	mov    %rcx,%rsi
  40212c:	48 89 c7             	mov    %rax,%rdi
  40212f:	e8 cc ed ff ff       	callq  400f00 <bcopy@plt>
  402134:	8b 85 94 5f ff ff    	mov    -0xa06c(%rbp),%eax
  40213a:	0f b7 c0             	movzwl %ax,%eax
  40213d:	89 c7                	mov    %eax,%edi
  40213f:	e8 ac ec ff ff       	callq  400df0 <htons@plt>
  402144:	66 89 85 c2 5f ff ff 	mov    %ax,-0xa03e(%rbp)
  40214b:	48 8d 8d c0 5f ff ff 	lea    -0xa040(%rbp),%rcx
  402152:	8b 85 a4 5f ff ff    	mov    -0xa05c(%rbp),%eax
  402158:	ba 10 00 00 00       	mov    $0x10,%edx
  40215d:	48 89 ce             	mov    %rcx,%rsi
  402160:	89 c7                	mov    %eax,%edi
  402162:	e8 f9 ed ff ff       	callq  400f60 <connect@plt>
  402167:	85 c0                	test   %eax,%eax
  402169:	79 37                	jns    4021a2 <submitr+0x1e4>
  40216b:	48 8b 95 98 5f ff ff 	mov    -0xa068(%rbp),%rdx
  402172:	48 8b 85 68 5f ff ff 	mov    -0xa098(%rbp),%rax
  402179:	be 48 31 40 00       	mov    $0x403148,%esi
  40217e:	48 89 c7             	mov    %rax,%rdi
  402181:	b8 00 00 00 00       	mov    $0x0,%eax
  402186:	e8 b5 ed ff ff       	callq  400f40 <sprintf@plt>
  40218b:	8b 85 a4 5f ff ff    	mov    -0xa05c(%rbp),%eax
  402191:	89 c7                	mov    %eax,%edi
  402193:	e8 98 ec ff ff       	callq  400e30 <close@plt>
  402198:	b8 ff ff ff ff       	mov    $0xffffffff,%eax
  40219d:	e9 6a 05 00 00       	jmpq   40270c <submitr+0x74e>
  4021a2:	48 8b 85 70 5f ff ff 	mov    -0xa090(%rbp),%rax
  4021a9:	48 89 c7             	mov    %rax,%rdi
  4021ac:	e8 0f ec ff ff       	callq  400dc0 <strlen@plt>
  4021b1:	48 89 85 b0 5f ff ff 	mov    %rax,-0xa050(%rbp)
  4021b8:	48 8b 85 88 5f ff ff 	mov    -0xa078(%rbp),%rax
  4021bf:	48 89 c7             	mov    %rax,%rdi
  4021c2:	e8 f9 eb ff ff       	callq  400dc0 <strlen@plt>
  4021c7:	48 89 c3             	mov    %rax,%rbx
  4021ca:	48 8b 85 80 5f ff ff 	mov    -0xa080(%rbp),%rax
  4021d1:	48 89 c7             	mov    %rax,%rdi
  4021d4:	e8 e7 eb ff ff       	callq  400dc0 <strlen@plt>
  4021d9:	48 01 c3             	add    %rax,%rbx
  4021dc:	48 8b 85 78 5f ff ff 	mov    -0xa088(%rbp),%rax
  4021e3:	48 89 c7             	mov    %rax,%rdi
  4021e6:	e8 d5 eb ff ff       	callq  400dc0 <strlen@plt>
  4021eb:	48 8d 0c 03          	lea    (%rbx,%rax,1),%rcx
  4021ef:	48 8b 95 b0 5f ff ff 	mov    -0xa050(%rbp),%rdx
  4021f6:	48 89 d0             	mov    %rdx,%rax
  4021f9:	48 01 c0             	add    %rax,%rax
  4021fc:	48 01 d0             	add    %rdx,%rax
  4021ff:	48 01 c8             	add    %rcx,%rax
  402202:	48 83 e8 80          	sub    $0xffffffffffffff80,%rax
  402206:	48 89 85 b8 5f ff ff 	mov    %rax,-0xa048(%rbp)
  40220d:	48 81 bd b8 5f ff ff 	cmpq   $0x2000,-0xa048(%rbp)
  402214:	00 20 00 00 
  402218:	76 7f                	jbe    402299 <submitr+0x2db>
  40221a:	48 8b 85 68 5f ff ff 	mov    -0xa098(%rbp),%rax
  402221:	48 bb 45 72 72 6f 72 	movabs $0x52203a726f727245,%rbx
  402228:	3a 20 52 
  40222b:	48 89 18             	mov    %rbx,(%rax)
  40222e:	48 bb 65 73 75 6c 74 	movabs $0x747320746c757365,%rbx
  402235:	20 73 74 
  402238:	48 89 58 08          	mov    %rbx,0x8(%rax)
  40223c:	48 bb 72 69 6e 67 20 	movabs $0x6f6f7420676e6972,%rbx
  402243:	74 6f 6f 
  402246:	48 89 58 10          	mov    %rbx,0x10(%rax)
  40224a:	48 bb 20 6c 61 72 67 	movabs $0x202e656772616c20,%rbx
  402251:	65 2e 20 
  402254:	48 89 58 18          	mov    %rbx,0x18(%rax)
  402258:	48 bb 49 6e 63 72 65 	movabs $0x6573616572636e49,%rbx
  40225f:	61 73 65 
  402262:	48 89 58 20          	mov    %rbx,0x20(%rax)
  402266:	48 bb 20 53 55 42 4d 	movabs $0x5254494d42555320,%rbx
  40226d:	49 54 52 
  402270:	48 89 58 28          	mov    %rbx,0x28(%rax)
  402274:	48 be 5f 4d 41 58 42 	movabs $0x46554258414d5f,%rsi
  40227b:	55 46 00 
  40227e:	48 89 70 30          	mov    %rsi,0x30(%rax)
  402282:	8b 85 a4 5f ff ff    	mov    -0xa05c(%rbp),%eax
  402288:	89 c7                	mov    %eax,%edi
  40228a:	e8 a1 eb ff ff       	callq  400e30 <close@plt>
  40228f:	b8 ff ff ff ff       	mov    $0xffffffff,%eax
  402294:	e9 73 04 00 00       	jmpq   40270c <submitr+0x74e>
  402299:	48 8d 85 e0 9f ff ff 	lea    -0x6020(%rbp),%rax
  4022a0:	be 00 20 00 00       	mov    $0x2000,%esi
  4022a5:	48 89 c7             	mov    %rax,%rdi
  4022a8:	e8 63 ec ff ff       	callq  400f10 <bzero@plt>
  4022ad:	48 8d 95 e0 9f ff ff 	lea    -0x6020(%rbp),%rdx
  4022b4:	48 8b 85 70 5f ff ff 	mov    -0xa090(%rbp),%rax
  4022bb:	48 89 d6             	mov    %rdx,%rsi
  4022be:	48 89 c7             	mov    %rax,%rdi
  4022c1:	e8 6d fb ff ff       	callq  401e33 <urlencode>
  4022c6:	85 c0                	test   %eax,%eax
  4022c8:	0f 89 97 00 00 00    	jns    402365 <submitr+0x3a7>
  4022ce:	48 8b 85 68 5f ff ff 	mov    -0xa098(%rbp),%rax
  4022d5:	48 bb 45 72 72 6f 72 	movabs $0x52203a726f727245,%rbx
  4022dc:	3a 20 52 
  4022df:	48 89 18             	mov    %rbx,(%rax)
  4022e2:	48 b9 65 73 75 6c 74 	movabs $0x747320746c757365,%rcx
  4022e9:	20 73 74 
  4022ec:	48 89 48 08          	mov    %rcx,0x8(%rax)
  4022f0:	48 be 72 69 6e 67 20 	movabs $0x6e6f6320676e6972,%rsi
  4022f7:	63 6f 6e 
  4022fa:	48 89 70 10          	mov    %rsi,0x10(%rax)
  4022fe:	48 bb 74 61 69 6e 73 	movabs $0x6e6120736e696174,%rbx
  402305:	20 61 6e 
  402308:	48 89 58 18          	mov    %rbx,0x18(%rax)
  40230c:	48 b9 20 69 6c 6c 65 	movabs $0x6c6167656c6c6920,%rcx
  402313:	67 61 6c 
  402316:	48 89 48 20          	mov    %rcx,0x20(%rax)
  40231a:	48 be 20 6f 72 20 75 	movabs $0x72706e7520726f20,%rsi
  402321:	6e 70 72 
  402324:	48 89 70 28          	mov    %rsi,0x28(%rax)
  402328:	48 bb 69 6e 74 61 62 	movabs $0x20656c6261746e69,%rbx
  40232f:	6c 65 20 
  402332:	48 89 58 30          	mov    %rbx,0x30(%rax)
  402336:	48 b9 63 68 61 72 61 	movabs $0x6574636172616863,%rcx
  40233d:	63 74 65 
  402340:	48 89 48 38          	mov    %rcx,0x38(%rax)
  402344:	66 c7 40 40 72 2e    	movw   $0x2e72,0x40(%rax)
  40234a:	c6 40 42 00          	movb   $0x0,0x42(%rax)
  40234e:	8b 85 a4 5f ff ff    	mov    -0xa05c(%rbp),%eax
  402354:	89 c7                	mov    %eax,%edi
  402356:	e8 d5 ea ff ff       	callq  400e30 <close@plt>
  40235b:	b8 ff ff ff ff       	mov    $0xffffffff,%eax
  402360:	e9 a7 03 00 00       	jmpq   40270c <submitr+0x74e>
  402365:	48 8d bd e0 9f ff ff 	lea    -0x6020(%rbp),%rdi
  40236c:	48 8b b5 78 5f ff ff 	mov    -0xa088(%rbp),%rsi
  402373:	48 8b 8d 80 5f ff ff 	mov    -0xa080(%rbp),%rcx
  40237a:	48 8b 95 88 5f ff ff 	mov    -0xa078(%rbp),%rdx
  402381:	48 8d 85 e0 7f ff ff 	lea    -0x8020(%rbp),%rax
  402388:	49 89 f9             	mov    %rdi,%r9
  40238b:	49 89 f0             	mov    %rsi,%r8
  40238e:	be 70 31 40 00       	mov    $0x403170,%esi
  402393:	48 89 c7             	mov    %rax,%rdi
  402396:	b8 00 00 00 00       	mov    $0x0,%eax
  40239b:	e8 a0 eb ff ff       	callq  400f40 <sprintf@plt>
  4023a0:	48 8d 85 e0 7f ff ff 	lea    -0x8020(%rbp),%rax
  4023a7:	48 89 c7             	mov    %rax,%rdi
  4023aa:	e8 11 ea ff ff       	callq  400dc0 <strlen@plt>
  4023af:	48 89 c2             	mov    %rax,%rdx
  4023b2:	48 8d 8d e0 7f ff ff 	lea    -0x8020(%rbp),%rcx
  4023b9:	8b 85 a4 5f ff ff    	mov    -0xa05c(%rbp),%eax
  4023bf:	48 89 ce             	mov    %rcx,%rsi
  4023c2:	89 c7                	mov    %eax,%edi
  4023c4:	e8 e9 f9 ff ff       	callq  401db2 <rio_writen>
  4023c9:	48 85 c0             	test   %rax,%rax
  4023cc:	79 6a                	jns    402438 <submitr+0x47a>
  4023ce:	48 8b 85 68 5f ff ff 	mov    -0xa098(%rbp),%rax
  4023d5:	48 be 45 72 72 6f 72 	movabs $0x43203a726f727245,%rsi
  4023dc:	3a 20 43 
  4023df:	48 89 30             	mov    %rsi,(%rax)
  4023e2:	48 bb 6c 69 65 6e 74 	movabs $0x6e7520746e65696c,%rbx
  4023e9:	20 75 6e 
  4023ec:	48 89 58 08          	mov    %rbx,0x8(%rax)
  4023f0:	48 b9 61 62 6c 65 20 	movabs $0x206f7420656c6261,%rcx
  4023f7:	74 6f 20 
  4023fa:	48 89 48 10          	mov    %rcx,0x10(%rax)
  4023fe:	48 be 77 72 69 74 65 	movabs $0x6f74206574697277,%rsi
  402405:	20 74 6f 
  402408:	48 89 70 18          	mov    %rsi,0x18(%rax)
  40240c:	48 bb 20 74 68 65 20 	movabs $0x7265732065687420,%rbx
  402413:	73 65 72 
  402416:	48 89 58 20          	mov    %rbx,0x20(%rax)
  40241a:	c7 40 28 76 65 72 00 	movl   $0x726576,0x28(%rax)
  402421:	8b 85 a4 5f ff ff    	mov    -0xa05c(%rbp),%eax
  402427:	89 c7                	mov    %eax,%edi
  402429:	e8 02 ea ff ff       	callq  400e30 <close@plt>
  40242e:	b8 ff ff ff ff       	mov    $0xffffffff,%eax
  402433:	e9 d4 02 00 00       	jmpq   40270c <submitr+0x74e>
  402438:	8b 95 a4 5f ff ff    	mov    -0xa05c(%rbp),%edx
  40243e:	48 8d 85 d0 5f ff ff 	lea    -0xa030(%rbp),%rax
  402445:	89 d6                	mov    %edx,%esi
  402447:	48 89 c7             	mov    %rax,%rdi
  40244a:	e8 72 f7 ff ff       	callq  401bc1 <rio_readinitb>
  40244f:	48 8d 8d e0 7f ff ff 	lea    -0x8020(%rbp),%rcx
  402456:	48 8d 85 d0 5f ff ff 	lea    -0xa030(%rbp),%rax
  40245d:	ba 00 20 00 00       	mov    $0x2000,%edx
  402462:	48 89 ce             	mov    %rcx,%rsi
  402465:	48 89 c7             	mov    %rax,%rdi
  402468:	e8 84 f8 ff ff       	callq  401cf1 <rio_readlineb>
  40246d:	48 85 c0             	test   %rax,%rax
  402470:	7f 7e                	jg     4024f0 <submitr+0x532>
  402472:	48 8b 85 68 5f ff ff 	mov    -0xa098(%rbp),%rax
  402479:	48 b9 45 72 72 6f 72 	movabs $0x43203a726f727245,%rcx
  402480:	3a 20 43 
  402483:	48 89 08             	mov    %rcx,(%rax)
  402486:	48 be 6c 69 65 6e 74 	movabs $0x6e7520746e65696c,%rsi
  40248d:	20 75 6e 
  402490:	48 89 70 08          	mov    %rsi,0x8(%rax)
  402494:	48 bb 61 62 6c 65 20 	movabs $0x206f7420656c6261,%rbx
  40249b:	74 6f 20 
  40249e:	48 89 58 10          	mov    %rbx,0x10(%rax)
  4024a2:	48 ba 72 65 61 64 20 	movabs $0x7269662064616572,%rdx
  4024a9:	66 69 72 
  4024ac:	48 89 50 18          	mov    %rdx,0x18(%rax)
  4024b0:	48 b9 73 74 20 68 65 	movabs $0x6564616568207473,%rcx
  4024b7:	61 64 65 
  4024ba:	48 89 48 20          	mov    %rcx,0x20(%rax)
  4024be:	48 be 72 20 66 72 6f 	movabs $0x73206d6f72662072,%rsi
  4024c5:	6d 20 73 
  4024c8:	48 89 70 28          	mov    %rsi,0x28(%rax)
  4024cc:	c7 40 30 65 72 76 65 	movl   $0x65767265,0x30(%rax)
  4024d3:	66 c7 40 34 72 00    	movw   $0x72,0x34(%rax)
  4024d9:	8b 85 a4 5f ff ff    	mov    -0xa05c(%rbp),%eax
  4024df:	89 c7                	mov    %eax,%edi
  4024e1:	e8 4a e9 ff ff       	callq  400e30 <close@plt>
  4024e6:	b8 ff ff ff ff       	mov    $0xffffffff,%eax
  4024eb:	e9 1c 02 00 00       	jmpq   40270c <submitr+0x74e>
  4024f0:	48 8d b5 e0 df ff ff 	lea    -0x2020(%rbp),%rsi
  4024f7:	48 8d 8d a0 5f ff ff 	lea    -0xa060(%rbp),%rcx
  4024fe:	48 8d 95 e0 bf ff ff 	lea    -0x4020(%rbp),%rdx
  402505:	48 8d 85 e0 7f ff ff 	lea    -0x8020(%rbp),%rax
  40250c:	49 89 f0             	mov    %rsi,%r8
  40250f:	be ba 31 40 00       	mov    $0x4031ba,%esi
  402514:	48 89 c7             	mov    %rax,%rdi
  402517:	b8 00 00 00 00       	mov    $0x0,%eax
  40251c:	e8 bf e9 ff ff       	callq  400ee0 <__isoc99_sscanf@plt>
  402521:	8b 85 a0 5f ff ff    	mov    -0xa060(%rbp),%eax
  402527:	3d c8 00 00 00       	cmp    $0xc8,%eax
  40252c:	0f 84 d5 00 00 00    	je     402607 <submitr+0x649>
  402532:	8b 95 a0 5f ff ff    	mov    -0xa060(%rbp),%edx
  402538:	48 8d 8d e0 df ff ff 	lea    -0x2020(%rbp),%rcx
  40253f:	48 8b 85 68 5f ff ff 	mov    -0xa098(%rbp),%rax
  402546:	be d0 31 40 00       	mov    $0x4031d0,%esi
  40254b:	48 89 c7             	mov    %rax,%rdi
  40254e:	b8 00 00 00 00       	mov    $0x0,%eax
  402553:	e8 e8 e9 ff ff       	callq  400f40 <sprintf@plt>
  402558:	8b 85 a4 5f ff ff    	mov    -0xa05c(%rbp),%eax
  40255e:	89 c7                	mov    %eax,%edi
  402560:	e8 cb e8 ff ff       	callq  400e30 <close@plt>
  402565:	b8 ff ff ff ff       	mov    $0xffffffff,%eax
  40256a:	e9 9d 01 00 00       	jmpq   40270c <submitr+0x74e>
  40256f:	48 8d 8d e0 7f ff ff 	lea    -0x8020(%rbp),%rcx
  402576:	48 8d 85 d0 5f ff ff 	lea    -0xa030(%rbp),%rax
  40257d:	ba 00 20 00 00       	mov    $0x2000,%edx
  402582:	48 89 ce             	mov    %rcx,%rsi
  402585:	48 89 c7             	mov    %rax,%rdi
  402588:	e8 64 f7 ff ff       	callq  401cf1 <rio_readlineb>
  40258d:	48 85 c0             	test   %rax,%rax
  402590:	7f 75                	jg     402607 <submitr+0x649>
  402592:	48 8b 85 68 5f ff ff 	mov    -0xa098(%rbp),%rax
  402599:	48 bb 45 72 72 6f 72 	movabs $0x43203a726f727245,%rbx
  4025a0:	3a 20 43 
  4025a3:	48 89 18             	mov    %rbx,(%rax)
  4025a6:	48 ba 6c 69 65 6e 74 	movabs $0x6e7520746e65696c,%rdx
  4025ad:	20 75 6e 
  4025b0:	48 89 50 08          	mov    %rdx,0x8(%rax)
  4025b4:	48 b9 61 62 6c 65 20 	movabs $0x206f7420656c6261,%rcx
  4025bb:	74 6f 20 
  4025be:	48 89 48 10          	mov    %rcx,0x10(%rax)
  4025c2:	48 be 72 65 61 64 20 	movabs $0x6165682064616572,%rsi
  4025c9:	68 65 61 
  4025cc:	48 89 70 18          	mov    %rsi,0x18(%rax)
  4025d0:	48 bb 64 65 72 73 20 	movabs $0x6f72662073726564,%rbx
  4025d7:	66 72 6f 
  4025da:	48 89 58 20          	mov    %rbx,0x20(%rax)
  4025de:	48 bf 6d 20 73 65 72 	movabs $0x726576726573206d,%rdi
  4025e5:	76 65 72 
  4025e8:	48 89 78 28          	mov    %rdi,0x28(%rax)
  4025ec:	c6 40 30 00          	movb   $0x0,0x30(%rax)
  4025f0:	8b 85 a4 5f ff ff    	mov    -0xa05c(%rbp),%eax
  4025f6:	89 c7                	mov    %eax,%edi
  4025f8:	e8 33 e8 ff ff       	callq  400e30 <close@plt>
  4025fd:	b8 ff ff ff ff       	mov    $0xffffffff,%eax
  402602:	e9 05 01 00 00       	jmpq   40270c <submitr+0x74e>
  402607:	48 8d 85 e0 7f ff ff 	lea    -0x8020(%rbp),%rax
  40260e:	be fd 31 40 00       	mov    $0x4031fd,%esi
  402613:	48 89 c7             	mov    %rax,%rdi
  402616:	e8 65 e8 ff ff       	callq  400e80 <strcmp@plt>
  40261b:	85 c0                	test   %eax,%eax
  40261d:	0f 85 4c ff ff ff    	jne    40256f <submitr+0x5b1>
  402623:	48 8d 8d e0 7f ff ff 	lea    -0x8020(%rbp),%rcx
  40262a:	48 8d 85 d0 5f ff ff 	lea    -0xa030(%rbp),%rax
  402631:	ba 00 20 00 00       	mov    $0x2000,%edx
  402636:	48 89 ce             	mov    %rcx,%rsi
  402639:	48 89 c7             	mov    %rax,%rdi
  40263c:	e8 b0 f6 ff ff       	callq  401cf1 <rio_readlineb>
  402641:	48 85 c0             	test   %rax,%rax
  402644:	7f 7c                	jg     4026c2 <submitr+0x704>
  402646:	48 8b 85 68 5f ff ff 	mov    -0xa098(%rbp),%rax
  40264d:	48 ba 45 72 72 6f 72 	movabs $0x43203a726f727245,%rdx
  402654:	3a 20 43 
  402657:	48 89 10             	mov    %rdx,(%rax)
  40265a:	48 b9 6c 69 65 6e 74 	movabs $0x6e7520746e65696c,%rcx
  402661:	20 75 6e 
  402664:	48 89 48 08          	mov    %rcx,0x8(%rax)
  402668:	48 be 61 62 6c 65 20 	movabs $0x206f7420656c6261,%rsi
  40266f:	74 6f 20 
  402672:	48 89 70 10          	mov    %rsi,0x10(%rax)
  402676:	48 bb 72 65 61 64 20 	movabs $0x6174732064616572,%rbx
  40267d:	73 74 61 
  402680:	48 89 58 18          	mov    %rbx,0x18(%rax)
  402684:	48 bf 74 75 73 20 6d 	movabs $0x7373656d20737574,%rdi
  40268b:	65 73 73 
  40268e:	48 89 78 20          	mov    %rdi,0x20(%rax)
  402692:	48 ba 61 67 65 20 66 	movabs $0x6d6f726620656761,%rdx
  402699:	72 6f 6d 
  40269c:	48 89 50 28          	mov    %rdx,0x28(%rax)
  4026a0:	48 b9 20 73 65 72 76 	movabs $0x72657672657320,%rcx
  4026a7:	65 72 00 
  4026aa:	48 89 48 30          	mov    %rcx,0x30(%rax)
  4026ae:	8b 85 a4 5f ff ff    	mov    -0xa05c(%rbp),%eax
  4026b4:	89 c7                	mov    %eax,%edi
  4026b6:	e8 75 e7 ff ff       	callq  400e30 <close@plt>
  4026bb:	b8 ff ff ff ff       	mov    $0xffffffff,%eax
  4026c0:	eb 4a                	jmp    40270c <submitr+0x74e>
  4026c2:	48 8d 95 e0 7f ff ff 	lea    -0x8020(%rbp),%rdx
  4026c9:	48 8b 85 68 5f ff ff 	mov    -0xa098(%rbp),%rax
  4026d0:	48 89 d6             	mov    %rdx,%rsi
  4026d3:	48 89 c7             	mov    %rax,%rdi
  4026d6:	e8 a5 e6 ff ff       	callq  400d80 <strcpy@plt>
  4026db:	8b 85 a4 5f ff ff    	mov    -0xa05c(%rbp),%eax
  4026e1:	89 c7                	mov    %eax,%edi
  4026e3:	e8 48 e7 ff ff       	callq  400e30 <close@plt>
  4026e8:	48 8b 85 68 5f ff ff 	mov    -0xa098(%rbp),%rax
  4026ef:	be 00 32 40 00       	mov    $0x403200,%esi
  4026f4:	48 89 c7             	mov    %rax,%rdi
  4026f7:	e8 84 e7 ff ff       	callq  400e80 <strcmp@plt>
  4026fc:	85 c0                	test   %eax,%eax
  4026fe:	75 07                	jne    402707 <submitr+0x749>
  402700:	b8 00 00 00 00       	mov    $0x0,%eax
  402705:	eb 05                	jmp    40270c <submitr+0x74e>
  402707:	b8 ff ff ff ff       	mov    $0xffffffff,%eax
  40270c:	48 8b 75 e8          	mov    -0x18(%rbp),%rsi
  402710:	64 48 33 34 25 28 00 	xor    %fs:0x28,%rsi
  402717:	00 00 
  402719:	74 05                	je     402720 <submitr+0x762>
  40271b:	e8 b0 e6 ff ff       	callq  400dd0 <__stack_chk_fail@plt>
  402720:	48 81 c4 98 a0 00 00 	add    $0xa098,%rsp
  402727:	5b                   	pop    %rbx
  402728:	5d                   	pop    %rbp
  402729:	c3                   	retq   

000000000040272a <init_timeout>:
  40272a:	55                   	push   %rbp
  40272b:	48 89 e5             	mov    %rsp,%rbp
  40272e:	48 83 ec 10          	sub    $0x10,%rsp
  402732:	89 7d fc             	mov    %edi,-0x4(%rbp)
  402735:	83 7d fc 00          	cmpl   $0x0,-0x4(%rbp)
  402739:	74 28                	je     402763 <init_timeout+0x39>
  40273b:	83 7d fc 00          	cmpl   $0x0,-0x4(%rbp)
  40273f:	79 07                	jns    402748 <init_timeout+0x1e>
  402741:	c7 45 fc 02 00 00 00 	movl   $0x2,-0x4(%rbp)
  402748:	be 98 1b 40 00       	mov    $0x401b98,%esi
  40274d:	bf 0e 00 00 00       	mov    $0xe,%edi
  402752:	e8 39 e7 ff ff       	callq  400e90 <signal@plt>
  402757:	8b 45 fc             	mov    -0x4(%rbp),%eax
  40275a:	89 c7                	mov    %eax,%edi
  40275c:	e8 bf e6 ff ff       	callq  400e20 <alarm@plt>
  402761:	eb 01                	jmp    402764 <init_timeout+0x3a>
  402763:	90                   	nop
  402764:	c9                   	leaveq 
  402765:	c3                   	retq   

0000000000402766 <init_driver>:
  402766:	55                   	push   %rbp
  402767:	48 89 e5             	mov    %rsp,%rbp
  40276a:	48 83 ec 50          	sub    $0x50,%rsp
  40276e:	48 89 7d b8          	mov    %rdi,-0x48(%rbp)
  402772:	64 48 8b 04 25 28 00 	mov    %fs:0x28,%rax
  402779:	00 00 
  40277b:	48 89 45 f8          	mov    %rax,-0x8(%rbp)
  40277f:	31 c0                	xor    %eax,%eax
  402781:	48 c7 45 d0 03 32 40 	movq   $0x403203,-0x30(%rbp)
  402788:	00 
  402789:	c7 45 c8 26 47 00 00 	movl   $0x4726,-0x38(%rbp)
  402790:	be 01 00 00 00       	mov    $0x1,%esi
  402795:	bf 0d 00 00 00       	mov    $0xd,%edi
  40279a:	e8 f1 e6 ff ff       	callq  400e90 <signal@plt>
  40279f:	be 01 00 00 00       	mov    $0x1,%esi
  4027a4:	bf 1d 00 00 00       	mov    $0x1d,%edi
  4027a9:	e8 e2 e6 ff ff       	callq  400e90 <signal@plt>
  4027ae:	be 01 00 00 00       	mov    $0x1,%esi
  4027b3:	bf 1d 00 00 00       	mov    $0x1d,%edi
  4027b8:	e8 d3 e6 ff ff       	callq  400e90 <signal@plt>
  4027bd:	ba 00 00 00 00       	mov    $0x0,%edx
  4027c2:	be 01 00 00 00       	mov    $0x1,%esi
  4027c7:	bf 02 00 00 00       	mov    $0x2,%edi
  4027cc:	e8 cf e7 ff ff       	callq  400fa0 <socket@plt>
  4027d1:	89 45 cc             	mov    %eax,-0x34(%rbp)
  4027d4:	83 7d cc 00          	cmpl   $0x0,-0x34(%rbp)
  4027d8:	79 52                	jns    40282c <init_driver+0xc6>
  4027da:	48 8b 45 b8          	mov    -0x48(%rbp),%rax
  4027de:	48 b9 45 72 72 6f 72 	movabs $0x43203a726f727245,%rcx
  4027e5:	3a 20 43 
  4027e8:	48 89 08             	mov    %rcx,(%rax)
  4027eb:	48 be 6c 69 65 6e 74 	movabs $0x6e7520746e65696c,%rsi
  4027f2:	20 75 6e 
  4027f5:	48 89 70 08          	mov    %rsi,0x8(%rax)
  4027f9:	48 ba 61 62 6c 65 20 	movabs $0x206f7420656c6261,%rdx
  402800:	74 6f 20 
  402803:	48 89 50 10          	mov    %rdx,0x10(%rax)
  402807:	48 b9 63 72 65 61 74 	movabs $0x7320657461657263,%rcx
  40280e:	65 20 73 
  402811:	48 89 48 18          	mov    %rcx,0x18(%rax)
  402815:	c7 40 20 6f 63 6b 65 	movl   $0x656b636f,0x20(%rax)
  40281c:	66 c7 40 24 74 00    	movw   $0x74,0x24(%rax)
  402822:	b8 ff ff ff ff       	mov    $0xffffffff,%eax
  402827:	e9 f9 00 00 00       	jmpq   402925 <init_driver+0x1bf>
  40282c:	48 8b 45 d0          	mov    -0x30(%rbp),%rax
  402830:	48 89 c7             	mov    %rax,%rdi
  402833:	e8 68 e6 ff ff       	callq  400ea0 <gethostbyname@plt>
  402838:	48 89 45 d8          	mov    %rax,-0x28(%rbp)
  40283c:	48 83 7d d8 00       	cmpq   $0x0,-0x28(%rbp)
  402841:	75 2e                	jne    402871 <init_driver+0x10b>
  402843:	48 8b 55 d0          	mov    -0x30(%rbp),%rdx
  402847:	48 8b 45 b8          	mov    -0x48(%rbp),%rax
  40284b:	be 18 31 40 00       	mov    $0x403118,%esi
  402850:	48 89 c7             	mov    %rax,%rdi
  402853:	b8 00 00 00 00       	mov    $0x0,%eax
  402858:	e8 e3 e6 ff ff       	callq  400f40 <sprintf@plt>
  40285d:	8b 45 cc             	mov    -0x34(%rbp),%eax
  402860:	89 c7                	mov    %eax,%edi
  402862:	e8 c9 e5 ff ff       	callq  400e30 <close@plt>
  402867:	b8 ff ff ff ff       	mov    $0xffffffff,%eax
  40286c:	e9 b4 00 00 00       	jmpq   402925 <init_driver+0x1bf>
  402871:	48 8d 45 e0          	lea    -0x20(%rbp),%rax
  402875:	be 10 00 00 00       	mov    $0x10,%esi
  40287a:	48 89 c7             	mov    %rax,%rdi
  40287d:	e8 8e e6 ff ff       	callq  400f10 <bzero@plt>
  402882:	66 c7 45 e0 02 00    	movw   $0x2,-0x20(%rbp)
  402888:	48 8b 45 d8          	mov    -0x28(%rbp),%rax
  40288c:	8b 40 14             	mov    0x14(%rax),%eax
  40288f:	48 63 d0             	movslq %eax,%rdx
  402892:	48 8b 45 d8          	mov    -0x28(%rbp),%rax
  402896:	48 8b 40 18          	mov    0x18(%rax),%rax
  40289a:	48 8b 00             	mov    (%rax),%rax
  40289d:	48 8d 4d e0          	lea    -0x20(%rbp),%rcx
  4028a1:	48 83 c1 04          	add    $0x4,%rcx
  4028a5:	48 89 ce             	mov    %rcx,%rsi
  4028a8:	48 89 c7             	mov    %rax,%rdi
  4028ab:	e8 50 e6 ff ff       	callq  400f00 <bcopy@plt>
  4028b0:	8b 45 c8             	mov    -0x38(%rbp),%eax
  4028b3:	0f b7 c0             	movzwl %ax,%eax
  4028b6:	89 c7                	mov    %eax,%edi
  4028b8:	e8 33 e5 ff ff       	callq  400df0 <htons@plt>
  4028bd:	66 89 45 e2          	mov    %ax,-0x1e(%rbp)
  4028c1:	48 8d 4d e0          	lea    -0x20(%rbp),%rcx
  4028c5:	8b 45 cc             	mov    -0x34(%rbp),%eax
  4028c8:	ba 10 00 00 00       	mov    $0x10,%edx
  4028cd:	48 89 ce             	mov    %rcx,%rsi
  4028d0:	89 c7                	mov    %eax,%edi
  4028d2:	e8 89 e6 ff ff       	callq  400f60 <connect@plt>
  4028d7:	85 c0                	test   %eax,%eax
  4028d9:	79 2e                	jns    402909 <init_driver+0x1a3>
  4028db:	8b 4d c8             	mov    -0x38(%rbp),%ecx
  4028de:	48 8b 55 d0          	mov    -0x30(%rbp),%rdx
  4028e2:	48 8b 45 b8          	mov    -0x48(%rbp),%rax
  4028e6:	be 10 32 40 00       	mov    $0x403210,%esi
  4028eb:	48 89 c7             	mov    %rax,%rdi
  4028ee:	b8 00 00 00 00       	mov    $0x0,%eax
  4028f3:	e8 48 e6 ff ff       	callq  400f40 <sprintf@plt>
  4028f8:	8b 45 cc             	mov    -0x34(%rbp),%eax
  4028fb:	89 c7                	mov    %eax,%edi
  4028fd:	e8 2e e5 ff ff       	callq  400e30 <close@plt>
  402902:	b8 ff ff ff ff       	mov    $0xffffffff,%eax
  402907:	eb 1c                	jmp    402925 <init_driver+0x1bf>
  402909:	8b 45 cc             	mov    -0x34(%rbp),%eax
  40290c:	89 c7                	mov    %eax,%edi
  40290e:	e8 1d e5 ff ff       	callq  400e30 <close@plt>
  402913:	48 8b 45 b8          	mov    -0x48(%rbp),%rax
  402917:	66 c7 00 4f 4b       	movw   $0x4b4f,(%rax)
  40291c:	c6 40 02 00          	movb   $0x0,0x2(%rax)
  402920:	b8 00 00 00 00       	mov    $0x0,%eax
  402925:	48 8b 75 f8          	mov    -0x8(%rbp),%rsi
  402929:	64 48 33 34 25 28 00 	xor    %fs:0x28,%rsi
  402930:	00 00 
  402932:	74 05                	je     402939 <init_driver+0x1d3>
  402934:	e8 97 e4 ff ff       	callq  400dd0 <__stack_chk_fail@plt>
  402939:	c9                   	leaveq 
  40293a:	c3                   	retq   

000000000040293b <driver_post>:
  40293b:	55                   	push   %rbp
  40293c:	48 89 e5             	mov    %rsp,%rbp
  40293f:	48 83 ec 30          	sub    $0x30,%rsp
  402943:	48 89 7d e8          	mov    %rdi,-0x18(%rbp)
  402947:	48 89 75 e0          	mov    %rsi,-0x20(%rbp)
  40294b:	89 55 dc             	mov    %edx,-0x24(%rbp)
  40294e:	48 89 4d d0          	mov    %rcx,-0x30(%rbp)
  402952:	83 7d dc 00          	cmpl   $0x0,-0x24(%rbp)
  402956:	74 2a                	je     402982 <driver_post+0x47>
  402958:	48 8b 45 e0          	mov    -0x20(%rbp),%rax
  40295c:	48 89 c6             	mov    %rax,%rsi
  40295f:	bf 39 32 40 00       	mov    $0x403239,%edi
  402964:	b8 00 00 00 00       	mov    $0x0,%eax
  402969:	e8 92 e4 ff ff       	callq  400e00 <printf@plt>
  40296e:	48 8b 45 d0          	mov    -0x30(%rbp),%rax
  402972:	66 c7 00 4f 4b       	movw   $0x4b4f,(%rax)
  402977:	c6 40 02 00          	movb   $0x0,0x2(%rax)
  40297b:	b8 00 00 00 00       	mov    $0x0,%eax
  402980:	eb 5f                	jmp    4029e1 <driver_post+0xa6>
  402982:	48 83 7d e8 00       	cmpq   $0x0,-0x18(%rbp)
  402987:	74 46                	je     4029cf <driver_post+0x94>
  402989:	48 8b 45 e8          	mov    -0x18(%rbp),%rax
  40298d:	0f b6 00             	movzbl (%rax),%eax
  402990:	84 c0                	test   %al,%al
  402992:	74 3b                	je     4029cf <driver_post+0x94>
  402994:	48 8b 55 e0          	mov    -0x20(%rbp),%rdx
  402998:	48 8b 45 e8          	mov    -0x18(%rbp),%rax
  40299c:	48 83 ec 08          	sub    $0x8,%rsp
  4029a0:	ff 75 d0             	pushq  -0x30(%rbp)
  4029a3:	49 89 d1             	mov    %rdx,%r9
  4029a6:	41 b8 50 32 40 00    	mov    $0x403250,%r8d
  4029ac:	48 89 c1             	mov    %rax,%rcx
  4029af:	ba 57 32 40 00       	mov    $0x403257,%edx
  4029b4:	be 26 47 00 00       	mov    $0x4726,%esi
  4029b9:	bf 03 32 40 00       	mov    $0x403203,%edi
  4029be:	e8 fb f5 ff ff       	callq  401fbe <submitr>
  4029c3:	48 83 c4 10          	add    $0x10,%rsp
  4029c7:	89 45 fc             	mov    %eax,-0x4(%rbp)
  4029ca:	8b 45 fc             	mov    -0x4(%rbp),%eax
  4029cd:	eb 12                	jmp    4029e1 <driver_post+0xa6>
  4029cf:	48 8b 45 d0          	mov    -0x30(%rbp),%rax
  4029d3:	66 c7 00 4f 4b       	movw   $0x4b4f,(%rax)
  4029d8:	c6 40 02 00          	movb   $0x0,0x2(%rax)
  4029dc:	b8 00 00 00 00       	mov    $0x0,%eax
  4029e1:	c9                   	leaveq 
  4029e2:	c3                   	retq   

00000000004029e3 <hash>:
  4029e3:	55                   	push   %rbp
  4029e4:	48 89 e5             	mov    %rsp,%rbp
  4029e7:	48 89 7d e8          	mov    %rdi,-0x18(%rbp)
  4029eb:	c7 45 fc 00 00 00 00 	movl   $0x0,-0x4(%rbp)
  4029f2:	eb 1d                	jmp    402a11 <hash+0x2e>
  4029f4:	8b 45 fc             	mov    -0x4(%rbp),%eax
  4029f7:	6b c8 67             	imul   $0x67,%eax,%ecx
  4029fa:	48 8b 45 e8          	mov    -0x18(%rbp),%rax
  4029fe:	48 8d 50 01          	lea    0x1(%rax),%rdx
  402a02:	48 89 55 e8          	mov    %rdx,-0x18(%rbp)
  402a06:	0f b6 00             	movzbl (%rax),%eax
  402a09:	0f be c0             	movsbl %al,%eax
  402a0c:	01 c8                	add    %ecx,%eax
  402a0e:	89 45 fc             	mov    %eax,-0x4(%rbp)
  402a11:	48 8b 45 e8          	mov    -0x18(%rbp),%rax
  402a15:	0f b6 00             	movzbl (%rax),%eax
  402a18:	84 c0                	test   %al,%al
  402a1a:	75 d8                	jne    4029f4 <hash+0x11>
  402a1c:	8b 45 fc             	mov    -0x4(%rbp),%eax
  402a1f:	5d                   	pop    %rbp
  402a20:	c3                   	retq   

0000000000402a21 <check>:
  402a21:	55                   	push   %rbp
  402a22:	48 89 e5             	mov    %rsp,%rbp
  402a25:	89 7d ec             	mov    %edi,-0x14(%rbp)
  402a28:	8b 45 ec             	mov    -0x14(%rbp),%eax
  402a2b:	c1 e8 1c             	shr    $0x1c,%eax
  402a2e:	85 c0                	test   %eax,%eax
  402a30:	75 07                	jne    402a39 <check+0x18>
  402a32:	b8 00 00 00 00       	mov    $0x0,%eax
  402a37:	eb 33                	jmp    402a6c <check+0x4b>
  402a39:	c7 45 fc 00 00 00 00 	movl   $0x0,-0x4(%rbp)
  402a40:	eb 1f                	jmp    402a61 <check+0x40>
  402a42:	8b 45 fc             	mov    -0x4(%rbp),%eax
  402a45:	8b 55 ec             	mov    -0x14(%rbp),%edx
  402a48:	89 c1                	mov    %eax,%ecx
  402a4a:	d3 ea                	shr    %cl,%edx
  402a4c:	89 d0                	mov    %edx,%eax
  402a4e:	0f b6 c0             	movzbl %al,%eax
  402a51:	83 f8 0a             	cmp    $0xa,%eax
  402a54:	75 07                	jne    402a5d <check+0x3c>
  402a56:	b8 00 00 00 00       	mov    $0x0,%eax
  402a5b:	eb 0f                	jmp    402a6c <check+0x4b>
  402a5d:	83 45 fc 08          	addl   $0x8,-0x4(%rbp)
  402a61:	83 7d fc 1f          	cmpl   $0x1f,-0x4(%rbp)
  402a65:	7e db                	jle    402a42 <check+0x21>
  402a67:	b8 01 00 00 00       	mov    $0x1,%eax
  402a6c:	5d                   	pop    %rbp
  402a6d:	c3                   	retq   

0000000000402a6e <gencookie>:
  402a6e:	55                   	push   %rbp
  402a6f:	48 89 e5             	mov    %rsp,%rbp
  402a72:	48 83 ec 20          	sub    $0x20,%rsp
  402a76:	48 89 7d e8          	mov    %rdi,-0x18(%rbp)
  402a7a:	48 8b 45 e8          	mov    -0x18(%rbp),%rax
  402a7e:	48 89 c7             	mov    %rax,%rdi
  402a81:	e8 5d ff ff ff       	callq  4029e3 <hash>
  402a86:	89 c7                	mov    %eax,%edi
  402a88:	e8 d3 e3 ff ff       	callq  400e60 <srand@plt>
  402a8d:	e8 fe e4 ff ff       	callq  400f90 <rand@plt>
  402a92:	89 45 fc             	mov    %eax,-0x4(%rbp)
  402a95:	8b 45 fc             	mov    -0x4(%rbp),%eax
  402a98:	89 c7                	mov    %eax,%edi
  402a9a:	e8 82 ff ff ff       	callq  402a21 <check>
  402a9f:	85 c0                	test   %eax,%eax
  402aa1:	74 ea                	je     402a8d <gencookie+0x1f>
  402aa3:	8b 45 fc             	mov    -0x4(%rbp),%eax
  402aa6:	c9                   	leaveq 
  402aa7:	c3                   	retq   
  402aa8:	0f 1f 84 00 00 00 00 	nopl   0x0(%rax,%rax,1)
  402aaf:	00 

0000000000402ab0 <__libc_csu_init>:
  402ab0:	41 57                	push   %r15
  402ab2:	41 56                	push   %r14
  402ab4:	41 89 ff             	mov    %edi,%r15d
  402ab7:	41 55                	push   %r13
  402ab9:	41 54                	push   %r12
  402abb:	4c 8d 25 4e 13 20 00 	lea    0x20134e(%rip),%r12        # 603e10 <__frame_dummy_init_array_entry>
  402ac2:	55                   	push   %rbp
  402ac3:	48 8d 2d 4e 13 20 00 	lea    0x20134e(%rip),%rbp        # 603e18 <__do_global_dtors_aux_fini_array_entry>
  402aca:	53                   	push   %rbx
  402acb:	49 89 f6             	mov    %rsi,%r14
  402ace:	49 89 d5             	mov    %rdx,%r13
  402ad1:	4c 29 e5             	sub    %r12,%rbp
  402ad4:	48 83 ec 08          	sub    $0x8,%rsp
  402ad8:	48 c1 fd 03          	sar    $0x3,%rbp
  402adc:	e8 37 e2 ff ff       	callq  400d18 <_init>
  402ae1:	48 85 ed             	test   %rbp,%rbp
  402ae4:	74 20                	je     402b06 <__libc_csu_init+0x56>
  402ae6:	31 db                	xor    %ebx,%ebx
  402ae8:	0f 1f 84 00 00 00 00 	nopl   0x0(%rax,%rax,1)
  402aef:	00 
  402af0:	4c 89 ea             	mov    %r13,%rdx
  402af3:	4c 89 f6             	mov    %r14,%rsi
  402af6:	44 89 ff             	mov    %r15d,%edi
  402af9:	41 ff 14 dc          	callq  *(%r12,%rbx,8)
  402afd:	48 83 c3 01          	add    $0x1,%rbx
  402b01:	48 39 eb             	cmp    %rbp,%rbx
  402b04:	75 ea                	jne    402af0 <__libc_csu_init+0x40>
  402b06:	48 83 c4 08          	add    $0x8,%rsp
  402b0a:	5b                   	pop    %rbx
  402b0b:	5d                   	pop    %rbp
  402b0c:	41 5c                	pop    %r12
  402b0e:	41 5d                	pop    %r13
  402b10:	41 5e                	pop    %r14
  402b12:	41 5f                	pop    %r15
  402b14:	c3                   	retq   
  402b15:	90                   	nop
  402b16:	66 2e 0f 1f 84 00 00 	nopw   %cs:0x0(%rax,%rax,1)
  402b1d:	00 00 00 

0000000000402b20 <__libc_csu_fini>:
  402b20:	f3 c3                	repz retq 

Disassembly of section .fini:

0000000000402b24 <_fini>:
  402b24:	48 83 ec 08          	sub    $0x8,%rsp
  402b28:	48 83 c4 08          	add    $0x8,%rsp
  402b2c:	c3                   	retq   
